SF:/home/ybao/B.1/B.1_COS/sdk/pandora_core/src/fep_cell.rs
FN:27,_RNCNvMNtCs74ZtNTl7RRg_12pandora_core8fep_cellNtB4_16SkandhaProcessor25run_epistemological_cycle0CsgzNQ116i4HN_27learning_engine_integration
FN:27,_RNvMNtCs74ZtNTl7RRg_12pandora_core8fep_cellNtB2_16SkandhaProcessor25run_epistemological_cycle
FN:14,_RNvMNtCs74ZtNTl7RRg_12pandora_core8fep_cellNtB2_16SkandhaProcessor3new
FN:27,_RNCNvMNtCsfOVo3o6Yfnu_12pandora_core8fep_cellNtB4_16SkandhaProcessor25run_epistemological_cycle0B6_
FN:27,_RNvMNtCsfOVo3o6Yfnu_12pandora_core8fep_cellNtB2_16SkandhaProcessor25run_epistemological_cycle
FN:14,_RNvMNtCsfOVo3o6Yfnu_12pandora_core8fep_cellNtB2_16SkandhaProcessor3new
FN:27,_RNCNvMNtCs74ZtNTl7RRg_12pandora_core8fep_cellNtB4_16SkandhaProcessor25run_epistemological_cycle0CshU4mGKqdthG_13skandha_cycle
FN:27,_RNCNvMNtCs74ZtNTl7RRg_12pandora_core8fep_cellNtB4_16SkandhaProcessor25run_epistemological_cycle0CsoxmhnnUJuQ_19transcendental_loop
FN:27,_RNCNvMNtCs74ZtNTl7RRg_12pandora_core8fep_cellNtB4_16SkandhaProcessor25run_epistemological_cycle0Cs96a4vfdAopY_21v3_consciousness_test
FNDA:1,_RNCNvMNtCs74ZtNTl7RRg_12pandora_core8fep_cellNtB4_16SkandhaProcessor25run_epistemological_cycle0CsgzNQ116i4HN_27learning_engine_integration
FNDA:7,_RNvMNtCs74ZtNTl7RRg_12pandora_core8fep_cellNtB2_16SkandhaProcessor25run_epistemological_cycle
FNDA:4,_RNvMNtCs74ZtNTl7RRg_12pandora_core8fep_cellNtB2_16SkandhaProcessor3new
FNDA:0,_RNCNvMNtCsfOVo3o6Yfnu_12pandora_core8fep_cellNtB4_16SkandhaProcessor25run_epistemological_cycle0B6_
FNDA:0,_RNvMNtCsfOVo3o6Yfnu_12pandora_core8fep_cellNtB2_16SkandhaProcessor25run_epistemological_cycle
FNDA:0,_RNvMNtCsfOVo3o6Yfnu_12pandora_core8fep_cellNtB2_16SkandhaProcessor3new
FNDA:2,_RNCNvMNtCs74ZtNTl7RRg_12pandora_core8fep_cellNtB4_16SkandhaProcessor25run_epistemological_cycle0CshU4mGKqdthG_13skandha_cycle
FNDA:1,_RNCNvMNtCs74ZtNTl7RRg_12pandora_core8fep_cellNtB4_16SkandhaProcessor25run_epistemological_cycle0CsoxmhnnUJuQ_19transcendental_loop
FNDA:3,_RNCNvMNtCs74ZtNTl7RRg_12pandora_core8fep_cellNtB4_16SkandhaProcessor25run_epistemological_cycle0Cs96a4vfdAopY_21v3_consciousness_test
FNF:3
FNH:3
DA:14,4
DA:15,4
DA:16,4
DA:17,4
DA:18,4
DA:19,4
DA:20,4
DA:21,4
DA:22,4
DA:23,4
DA:27,7
DA:28,7
DA:31,7
DA:34,7
DA:37,7
DA:40,7
DA:43,7
DA:45,7
DA:47,7
DA:48,7
BRF:0
BRH:0
LF:21
LH:21
end_of_record
SF:/home/ybao/B.1/B.1_COS/sdk/pandora_core/src/skandha_implementations/advanced_skandhas.rs
FN:14,_RNvMNtNtCsfOVo3o6Yfnu_12pandora_core23skandha_implementations17advanced_skandhasNtB2_19AdvancedRupaSkandha3new
FN:61,_RNvMs0_NtNtCsfOVo3o6Yfnu_12pandora_core23skandha_implementations17advanced_skandhasNtB5_21AdvancedVedanaSkandha3new
FN:122,_RNvMs2_NtNtCsfOVo3o6Yfnu_12pandora_core23skandha_implementations17advanced_skandhasNtB5_21AdvancedVedanaSkandha15analyze_context
FN:149,_RNvMs3_NtNtCsfOVo3o6Yfnu_12pandora_core23skandha_implementations17advanced_skandhasNtB5_20AdvancedSannaSkandha3new
FN:231,_RNvMs5_NtNtCsfOVo3o6Yfnu_12pandora_core23skandha_implementations17advanced_skandhasNtB5_20AdvancedSannaSkandha10hash_bytes
FN:239,_RNvMs5_NtNtCsfOVo3o6Yfnu_12pandora_core23skandha_implementations17advanced_skandhasNtB5_20AdvancedSannaSkandha11hash_string
FN:184,_RNvMs5_NtNtCsfOVo3o6Yfnu_12pandora_core23skandha_implementations17advanced_skandhasNtB5_20AdvancedSannaSkandha21create_advanced_eidos
FN:211,_RNvMs5_NtNtCsfOVo3o6Yfnu_12pandora_core23skandha_implementations17advanced_skandhasNtB5_20AdvancedSannaSkandha22find_advanced_patterns
FN:255,_RNvMs6_NtNtCsfOVo3o6Yfnu_12pandora_core23skandha_implementations17advanced_skandhasNtB5_23AdvancedSankharaSkandha3new
FN:281,_RNvMs8_NtNtCsfOVo3o6Yfnu_12pandora_core23skandha_implementations17advanced_skandhasNtB5_23AdvancedSankharaSkandha18analyze_and_decide
FN:339,_RNvMs8_NtNtCsfOVo3o6Yfnu_12pandora_core23skandha_implementations17advanced_skandhasNtB5_23AdvancedSankharaSkandha21apply_priority_system
FN:360,_RNvMs9_NtNtCsfOVo3o6Yfnu_12pandora_core23skandha_implementations17advanced_skandhasNtB5_22AdvancedVinnanaSkandha3new
FN:424,_RNvMsb_NtNtCsfOVo3o6Yfnu_12pandora_core23skandha_implementations17advanced_skandhasNtB5_22AdvancedVinnanaSkandha22create_conscious_event
FN:388,_RNvMsb_NtNtCsfOVo3o6Yfnu_12pandora_core23skandha_implementations17advanced_skandhasNtB5_22AdvancedVinnanaSkandha25calculate_synthesis_score
FN:67,_RNvXs1_NtNtCsfOVo3o6Yfnu_12pandora_core23skandha_implementations17advanced_skandhasNtB5_21AdvancedVedanaSkandhaNtNtNtB9_10interfaces8skandhas7Skandha4name
FN:155,_RNvXs4_NtNtCsfOVo3o6Yfnu_12pandora_core23skandha_implementations17advanced_skandhasNtB5_20AdvancedSannaSkandhaNtNtNtB9_10interfaces8skandhas7Skandha4name
FN:261,_RNvXs7_NtNtCsfOVo3o6Yfnu_12pandora_core23skandha_implementations17advanced_skandhasNtB5_23AdvancedSankharaSkandhaNtNtNtB9_10interfaces8skandhas7Skandha4name
FN:20,_RNvXs_NtNtCsfOVo3o6Yfnu_12pandora_core23skandha_implementations17advanced_skandhasNtB4_19AdvancedRupaSkandhaNtNtNtB8_10interfaces8skandhas7Skandha4name
FN:366,_RNvXsa_NtNtCsfOVo3o6Yfnu_12pandora_core23skandha_implementations17advanced_skandhasNtB5_22AdvancedVinnanaSkandhaNtNtNtB9_10interfaces8skandhas7Skandha4name
FN:25,_RNvXsc_NtNtCsfOVo3o6Yfnu_12pandora_core23skandha_implementations17advanced_skandhasNtB5_19AdvancedRupaSkandhaNtNtNtB9_10interfaces8skandhas11RupaSkandha13process_event
FN:72,_RNvXsd_NtNtCsfOVo3o6Yfnu_12pandora_core23skandha_implementations17advanced_skandhasNtB5_21AdvancedVedanaSkandhaNtNtNtB9_10interfaces8skandhas13VedanaSkandha4feel
FN:160,_RNvXse_NtNtCsfOVo3o6Yfnu_12pandora_core23skandha_implementations17advanced_skandhasNtB5_20AdvancedSannaSkandhaNtNtNtB9_10interfaces8skandhas12SannaSkandha8perceive
FN:266,_RNvXsf_NtNtCsfOVo3o6Yfnu_12pandora_core23skandha_implementations17advanced_skandhasNtB5_23AdvancedSankharaSkandhaNtNtNtB9_10interfaces8skandhas15SankharaSkandha11form_intent
FN:371,_RNvXsg_NtNtCsfOVo3o6Yfnu_12pandora_core23skandha_implementations17advanced_skandhasNtB5_22AdvancedVinnanaSkandhaNtNtNtB9_10interfaces8skandhas14VinnanaSkandha10synthesize
FNDA:7,_RNvMNtNtCsfOVo3o6Yfnu_12pandora_core23skandha_implementations17advanced_skandhasNtB2_19AdvancedRupaSkandha3new
FNDA:7,_RNvMs0_NtNtCsfOVo3o6Yfnu_12pandora_core23skandha_implementations17advanced_skandhasNtB5_21AdvancedVedanaSkandha3new
FNDA:2,_RNvMs2_NtNtCsfOVo3o6Yfnu_12pandora_core23skandha_implementations17advanced_skandhasNtB5_21AdvancedVedanaSkandha15analyze_context
FNDA:7,_RNvMs3_NtNtCsfOVo3o6Yfnu_12pandora_core23skandha_implementations17advanced_skandhasNtB5_20AdvancedSannaSkandha3new
FNDA:69,_RNvMs5_NtNtCsfOVo3o6Yfnu_12pandora_core23skandha_implementations17advanced_skandhasNtB5_20AdvancedSannaSkandha10hash_bytes
FNDA:9,_RNvMs5_NtNtCsfOVo3o6Yfnu_12pandora_core23skandha_implementations17advanced_skandhasNtB5_20AdvancedSannaSkandha11hash_string
FNDA:2,_RNvMs5_NtNtCsfOVo3o6Yfnu_12pandora_core23skandha_implementations17advanced_skandhasNtB5_20AdvancedSannaSkandha21create_advanced_eidos
FNDA:2,_RNvMs5_NtNtCsfOVo3o6Yfnu_12pandora_core23skandha_implementations17advanced_skandhasNtB5_20AdvancedSannaSkandha22find_advanced_patterns
FNDA:7,_RNvMs6_NtNtCsfOVo3o6Yfnu_12pandora_core23skandha_implementations17advanced_skandhasNtB5_23AdvancedSankharaSkandha3new
FNDA:2,_RNvMs8_NtNtCsfOVo3o6Yfnu_12pandora_core23skandha_implementations17advanced_skandhasNtB5_23AdvancedSankharaSkandha18analyze_and_decide
FNDA:2,_RNvMs8_NtNtCsfOVo3o6Yfnu_12pandora_core23skandha_implementations17advanced_skandhasNtB5_23AdvancedSankharaSkandha21apply_priority_system
FNDA:7,_RNvMs9_NtNtCsfOVo3o6Yfnu_12pandora_core23skandha_implementations17advanced_skandhasNtB5_22AdvancedVinnanaSkandha3new
FNDA:2,_RNvMsb_NtNtCsfOVo3o6Yfnu_12pandora_core23skandha_implementations17advanced_skandhasNtB5_22AdvancedVinnanaSkandha22create_conscious_event
FNDA:2,_RNvMsb_NtNtCsfOVo3o6Yfnu_12pandora_core23skandha_implementations17advanced_skandhasNtB5_22AdvancedVinnanaSkandha25calculate_synthesis_score
FNDA:9,_RNvXs1_NtNtCsfOVo3o6Yfnu_12pandora_core23skandha_implementations17advanced_skandhasNtB5_21AdvancedVedanaSkandhaNtNtNtB9_10interfaces8skandhas7Skandha4name
FNDA:9,_RNvXs4_NtNtCsfOVo3o6Yfnu_12pandora_core23skandha_implementations17advanced_skandhasNtB5_20AdvancedSannaSkandhaNtNtNtB9_10interfaces8skandhas7Skandha4name
FNDA:9,_RNvXs7_NtNtCsfOVo3o6Yfnu_12pandora_core23skandha_implementations17advanced_skandhasNtB5_23AdvancedSankharaSkandhaNtNtNtB9_10interfaces8skandhas7Skandha4name
FNDA:11,_RNvXs_NtNtCsfOVo3o6Yfnu_12pandora_core23skandha_implementations17advanced_skandhasNtB4_19AdvancedRupaSkandhaNtNtNtB8_10interfaces8skandhas7Skandha4name
FNDA:9,_RNvXsa_NtNtCsfOVo3o6Yfnu_12pandora_core23skandha_implementations17advanced_skandhasNtB5_22AdvancedVinnanaSkandhaNtNtNtB9_10interfaces8skandhas7Skandha4name
FNDA:2,_RNvXsc_NtNtCsfOVo3o6Yfnu_12pandora_core23skandha_implementations17advanced_skandhasNtB5_19AdvancedRupaSkandhaNtNtNtB9_10interfaces8skandhas11RupaSkandha13process_event
FNDA:2,_RNvXsd_NtNtCsfOVo3o6Yfnu_12pandora_core23skandha_implementations17advanced_skandhasNtB5_21AdvancedVedanaSkandhaNtNtNtB9_10interfaces8skandhas13VedanaSkandha4feel
FNDA:2,_RNvXse_NtNtCsfOVo3o6Yfnu_12pandora_core23skandha_implementations17advanced_skandhasNtB5_20AdvancedSannaSkandhaNtNtNtB9_10interfaces8skandhas12SannaSkandha8perceive
FNDA:2,_RNvXsf_NtNtCsfOVo3o6Yfnu_12pandora_core23skandha_implementations17advanced_skandhasNtB5_23AdvancedSankharaSkandhaNtNtNtB9_10interfaces8skandhas15SankharaSkandha11form_intent
FNDA:2,_RNvXsg_NtNtCsfOVo3o6Yfnu_12pandora_core23skandha_implementations17advanced_skandhasNtB5_22AdvancedVinnanaSkandhaNtNtNtB9_10interfaces8skandhas14VinnanaSkandha10synthesize
FNF:24
FNH:24
DA:14,7
DA:15,7
DA:16,7
DA:20,11
DA:25,2
DA:51,2
DA:61,7
DA:62,7
DA:63,7
DA:67,9
DA:72,2
DA:118,2
DA:122,2
DA:123,2
DA:126,2
DA:127,2
DA:128,0
DA:129,2
DA:130,0
DA:131,2
DA:134,2
DA:135,0
DA:136,2
DA:138,2
DA:139,2
DA:149,7
DA:150,7
DA:151,7
DA:155,9
DA:160,2
DA:180,2
DA:184,2
DA:185,2
DA:186,2
DA:189,69
DA:190,69
DA:191,69
DA:192,69
DA:193,69
DA:196,2
DA:197,9
DA:198,9
DA:199,9
DA:200,9
DA:201,9
DA:203,0
DA:205,2
DA:206,2
DA:207,2
DA:208,2
DA:209,2
DA:211,2
DA:212,2
DA:215,8
DA:216,6
DA:217,6
DA:220,6
DA:221,0
DA:222,0
DA:223,0
DA:225,6
DA:228,2
DA:229,2
DA:231,69
DA:232,69
DA:233,276
DA:234,207
DA:235,207
DA:236,69
DA:237,69
DA:239,9
DA:240,9
DA:241,66
DA:242,66
DA:243,66
DA:244,9
DA:245,9
DA:255,7
DA:256,7
DA:257,7
DA:261,9
DA:266,2
DA:277,2
DA:281,2
DA:282,2
DA:283,2
DA:286,2
DA:287,2
DA:288,0
DA:289,0
DA:290,0
DA:291,0
DA:292,0
DA:294,2
DA:295,2
DA:296,2
DA:297,2
DA:298,2
DA:299,0
DA:300,0
DA:302,0
DA:303,0
DA:304,0
DA:305,0
DA:307,0
DA:310,2
DA:311,2
DA:312,2
DA:314,2
DA:315,0
DA:316,2
DA:317,0
DA:320,2
DA:321,1
DA:322,1
DA:323,1
DA:324,1
DA:325,1
DA:328,2
DA:329,2
DA:330,2
DA:332,2
DA:333,2
DA:335,0
DA:337,2
DA:339,2
DA:340,0
DA:341,2
DA:342,1
DA:344,1
DA:345,1
DA:347,0
DA:348,0
DA:350,2
DA:360,7
DA:361,7
DA:362,7
DA:366,9
DA:371,2
DA:384,2
DA:388,2
DA:389,2
DA:392,2
DA:393,2
DA:394,1
DA:395,1
DA:396,0
DA:398,0
DA:401,2
DA:402,2
DA:403,2
DA:404,2
DA:407,2
DA:408,2
DA:409,2
DA:412,2
DA:413,2
DA:414,2
DA:417,2
DA:418,2
DA:419,2
DA:421,2
DA:422,2
DA:424,2
DA:425,2
DA:428,2
DA:429,2
DA:430,2
DA:433,2
DA:436,2
DA:437,2
DA:438,2
DA:439,2
DA:442,2
DA:443,2
DA:444,2
DA:447,2
DA:448,2
DA:449,2
DA:450,2
DA:451,2
DA:453,2
DA:454,2
DA:455,2
BRF:0
BRH:0
LF:184
LH:157
end_of_record
SF:/home/ybao/B.1/B.1_COS/sdk/pandora_core/src/skandha_implementations/basic_skandhas.rs
FN:99,_RNvMs1_NtNtCs74ZtNTl7RRg_12pandora_core23skandha_implementations14basic_skandhasNtB5_17BasicSannaSkandha21find_related_patterns
FN:8,_RNvXNtNtCs74ZtNTl7RRg_12pandora_core23skandha_implementations14basic_skandhasNtB2_16BasicRupaSkandhaNtNtNtB6_10interfaces8skandhas7Skandha4name
FN:48,_RNvXs0_NtNtCs74ZtNTl7RRg_12pandora_core23skandha_implementations14basic_skandhasNtB5_17BasicSannaSkandhaNtNtNtB9_10interfaces8skandhas7Skandha4name
FN:120,_RNvXs2_NtNtCs74ZtNTl7RRg_12pandora_core23skandha_implementations14basic_skandhasNtB5_20BasicSankharaSkandhaNtNtNtB9_10interfaces8skandhas7Skandha4name
FN:138,_RNvXs3_NtNtCs74ZtNTl7RRg_12pandora_core23skandha_implementations14basic_skandhasNtB5_19BasicVinnanaSkandhaNtNtNtB9_10interfaces8skandhas7Skandha4name
FN:12,_RNvXs4_NtNtCs74ZtNTl7RRg_12pandora_core23skandha_implementations14basic_skandhasNtB5_16BasicRupaSkandhaNtNtNtB9_10interfaces8skandhas11RupaSkandha13process_event
FN:28,_RNvXs5_NtNtCs74ZtNTl7RRg_12pandora_core23skandha_implementations14basic_skandhasNtB5_18BasicVedanaSkandhaNtNtNtB9_10interfaces8skandhas13VedanaSkandha4feel
FN:52,_RNvXs6_NtNtCs74ZtNTl7RRg_12pandora_core23skandha_implementations14basic_skandhasNtB5_17BasicSannaSkandhaNtNtNtB9_10interfaces8skandhas12SannaSkandha8perceive
FN:124,_RNvXs7_NtNtCs74ZtNTl7RRg_12pandora_core23skandha_implementations14basic_skandhasNtB5_20BasicSankharaSkandhaNtNtNtB9_10interfaces8skandhas15SankharaSkandha11form_intent
FN:142,_RNvXs8_NtNtCs74ZtNTl7RRg_12pandora_core23skandha_implementations14basic_skandhasNtB5_19BasicVinnanaSkandhaNtNtNtB9_10interfaces8skandhas14VinnanaSkandha10synthesize
FN:24,_RNvXs_NtNtCs74ZtNTl7RRg_12pandora_core23skandha_implementations14basic_skandhasNtB4_18BasicVedanaSkandhaNtNtNtB8_10interfaces8skandhas7Skandha4name
FN:99,_RNvMs1_NtNtCsfOVo3o6Yfnu_12pandora_core23skandha_implementations14basic_skandhasNtB5_17BasicSannaSkandha21find_related_patterns
FN:8,_RNvXNtNtCsfOVo3o6Yfnu_12pandora_core23skandha_implementations14basic_skandhasNtB2_16BasicRupaSkandhaNtNtNtB6_10interfaces8skandhas7Skandha4name
FN:48,_RNvXs0_NtNtCsfOVo3o6Yfnu_12pandora_core23skandha_implementations14basic_skandhasNtB5_17BasicSannaSkandhaNtNtNtB9_10interfaces8skandhas7Skandha4name
FN:120,_RNvXs2_NtNtCsfOVo3o6Yfnu_12pandora_core23skandha_implementations14basic_skandhasNtB5_20BasicSankharaSkandhaNtNtNtB9_10interfaces8skandhas7Skandha4name
FN:138,_RNvXs3_NtNtCsfOVo3o6Yfnu_12pandora_core23skandha_implementations14basic_skandhasNtB5_19BasicVinnanaSkandhaNtNtNtB9_10interfaces8skandhas7Skandha4name
FN:12,_RNvXs4_NtNtCsfOVo3o6Yfnu_12pandora_core23skandha_implementations14basic_skandhasNtB5_16BasicRupaSkandhaNtNtNtB9_10interfaces8skandhas11RupaSkandha13process_event
FN:28,_RNvXs5_NtNtCsfOVo3o6Yfnu_12pandora_core23skandha_implementations14basic_skandhasNtB5_18BasicVedanaSkandhaNtNtNtB9_10interfaces8skandhas13VedanaSkandha4feel
FN:52,_RNvXs6_NtNtCsfOVo3o6Yfnu_12pandora_core23skandha_implementations14basic_skandhasNtB5_17BasicSannaSkandhaNtNtNtB9_10interfaces8skandhas12SannaSkandha8perceive
FN:124,_RNvXs7_NtNtCsfOVo3o6Yfnu_12pandora_core23skandha_implementations14basic_skandhasNtB5_20BasicSankharaSkandhaNtNtNtB9_10interfaces8skandhas15SankharaSkandha11form_intent
FN:142,_RNvXs8_NtNtCsfOVo3o6Yfnu_12pandora_core23skandha_implementations14basic_skandhasNtB5_19BasicVinnanaSkandhaNtNtNtB9_10interfaces8skandhas14VinnanaSkandha10synthesize
FN:24,_RNvXs_NtNtCsfOVo3o6Yfnu_12pandora_core23skandha_implementations14basic_skandhasNtB4_18BasicVedanaSkandhaNtNtNtB8_10interfaces8skandhas7Skandha4name
FNDA:7,_RNvMs1_NtNtCs74ZtNTl7RRg_12pandora_core23skandha_implementations14basic_skandhasNtB5_17BasicSannaSkandha21find_related_patterns
FNDA:7,_RNvXNtNtCs74ZtNTl7RRg_12pandora_core23skandha_implementations14basic_skandhasNtB2_16BasicRupaSkandhaNtNtNtB6_10interfaces8skandhas7Skandha4name
FNDA:14,_RNvXs0_NtNtCs74ZtNTl7RRg_12pandora_core23skandha_implementations14basic_skandhasNtB5_17BasicSannaSkandhaNtNtNtB9_10interfaces8skandhas7Skandha4name
FNDA:7,_RNvXs2_NtNtCs74ZtNTl7RRg_12pandora_core23skandha_implementations14basic_skandhasNtB5_20BasicSankharaSkandhaNtNtNtB9_10interfaces8skandhas7Skandha4name
FNDA:7,_RNvXs3_NtNtCs74ZtNTl7RRg_12pandora_core23skandha_implementations14basic_skandhasNtB5_19BasicVinnanaSkandhaNtNtNtB9_10interfaces8skandhas7Skandha4name
FNDA:7,_RNvXs4_NtNtCs74ZtNTl7RRg_12pandora_core23skandha_implementations14basic_skandhasNtB5_16BasicRupaSkandhaNtNtNtB9_10interfaces8skandhas11RupaSkandha13process_event
FNDA:7,_RNvXs5_NtNtCs74ZtNTl7RRg_12pandora_core23skandha_implementations14basic_skandhasNtB5_18BasicVedanaSkandhaNtNtNtB9_10interfaces8skandhas13VedanaSkandha4feel
FNDA:7,_RNvXs6_NtNtCs74ZtNTl7RRg_12pandora_core23skandha_implementations14basic_skandhasNtB5_17BasicSannaSkandhaNtNtNtB9_10interfaces8skandhas12SannaSkandha8perceive
FNDA:7,_RNvXs7_NtNtCs74ZtNTl7RRg_12pandora_core23skandha_implementations14basic_skandhasNtB5_20BasicSankharaSkandhaNtNtNtB9_10interfaces8skandhas15SankharaSkandha11form_intent
FNDA:7,_RNvXs8_NtNtCs74ZtNTl7RRg_12pandora_core23skandha_implementations14basic_skandhasNtB5_19BasicVinnanaSkandhaNtNtNtB9_10interfaces8skandhas14VinnanaSkandha10synthesize
FNDA:7,_RNvXs_NtNtCs74ZtNTl7RRg_12pandora_core23skandha_implementations14basic_skandhasNtB4_18BasicVedanaSkandhaNtNtNtB8_10interfaces8skandhas7Skandha4name
FNDA:0,_RNvMs1_NtNtCsfOVo3o6Yfnu_12pandora_core23skandha_implementations14basic_skandhasNtB5_17BasicSannaSkandha21find_related_patterns
FNDA:3,_RNvXNtNtCsfOVo3o6Yfnu_12pandora_core23skandha_implementations14basic_skandhasNtB2_16BasicRupaSkandhaNtNtNtB6_10interfaces8skandhas7Skandha4name
FNDA:3,_RNvXs0_NtNtCsfOVo3o6Yfnu_12pandora_core23skandha_implementations14basic_skandhasNtB5_17BasicSannaSkandhaNtNtNtB9_10interfaces8skandhas7Skandha4name
FNDA:3,_RNvXs2_NtNtCsfOVo3o6Yfnu_12pandora_core23skandha_implementations14basic_skandhasNtB5_20BasicSankharaSkandhaNtNtNtB9_10interfaces8skandhas7Skandha4name
FNDA:3,_RNvXs3_NtNtCsfOVo3o6Yfnu_12pandora_core23skandha_implementations14basic_skandhasNtB5_19BasicVinnanaSkandhaNtNtNtB9_10interfaces8skandhas7Skandha4name
FNDA:0,_RNvXs4_NtNtCsfOVo3o6Yfnu_12pandora_core23skandha_implementations14basic_skandhasNtB5_16BasicRupaSkandhaNtNtNtB9_10interfaces8skandhas11RupaSkandha13process_event
FNDA:0,_RNvXs5_NtNtCsfOVo3o6Yfnu_12pandora_core23skandha_implementations14basic_skandhasNtB5_18BasicVedanaSkandhaNtNtNtB9_10interfaces8skandhas13VedanaSkandha4feel
FNDA:0,_RNvXs6_NtNtCsfOVo3o6Yfnu_12pandora_core23skandha_implementations14basic_skandhasNtB5_17BasicSannaSkandhaNtNtNtB9_10interfaces8skandhas12SannaSkandha8perceive
FNDA:0,_RNvXs7_NtNtCsfOVo3o6Yfnu_12pandora_core23skandha_implementations14basic_skandhasNtB5_20BasicSankharaSkandhaNtNtNtB9_10interfaces8skandhas15SankharaSkandha11form_intent
FNDA:0,_RNvXs8_NtNtCsfOVo3o6Yfnu_12pandora_core23skandha_implementations14basic_skandhasNtB5_19BasicVinnanaSkandhaNtNtNtB9_10interfaces8skandhas14VinnanaSkandha10synthesize
FNDA:3,_RNvXs_NtNtCsfOVo3o6Yfnu_12pandora_core23skandha_implementations14basic_skandhasNtB4_18BasicVedanaSkandhaNtNtNtB8_10interfaces8skandhas7Skandha4name
FNF:11
FNH:11
DA:8,10
DA:12,7
DA:18,7
DA:24,10
DA:28,7
DA:42,7
DA:48,17
DA:52,7
DA:94,7
DA:99,7
DA:100,7
DA:103,28
DA:104,21
DA:106,519
DA:107,519
DA:108,519
DA:109,519
DA:110,21
DA:113,7
DA:114,7
DA:120,10
DA:124,7
DA:126,7
DA:132,7
DA:138,10
DA:142,7
DA:152,7
BRF:0
BRH:0
LF:27
LH:27
end_of_record
SF:/home/ybao/B.1/B.1_COS/sdk/pandora_core/src/skandha_implementations/skandha_factory.rs
FN:12,_RNvMNtNtCsfOVo3o6Yfnu_12pandora_core23skandha_implementations15skandha_factoryNtB2_14SkandhaFactory21create_basic_skandhas
FN:103,_RNvMNtNtCsfOVo3o6Yfnu_12pandora_core23skandha_implementations15skandha_factoryNtB2_14SkandhaFactory21create_debug_skandhas
FN:120,_RNvMNtNtCsfOVo3o6Yfnu_12pandora_core23skandha_implementations15skandha_factoryNtB2_14SkandhaFactory23create_minimal_skandhas
FN:69,_RNvMNtNtCsfOVo3o6Yfnu_12pandora_core23skandha_implementations15skandha_factoryNtB2_14SkandhaFactory23create_preset_processor
FN:29,_RNvMNtNtCsfOVo3o6Yfnu_12pandora_core23skandha_implementations15skandha_factoryNtB2_14SkandhaFactory24create_advanced_skandhas
FN:46,_RNvMNtNtCsfOVo3o6Yfnu_12pandora_core23skandha_implementations15skandha_factoryNtB2_14SkandhaFactory31create_custom_advanced_skandhas
FN:86,_RNvMNtNtCsfOVo3o6Yfnu_12pandora_core23skandha_implementations15skandha_factoryNtB2_14SkandhaFactory32create_high_performance_skandhas
FN:148,_RNvMs_NtNtCsfOVo3o6Yfnu_12pandora_core23skandha_implementations15skandha_factoryNtB4_13SkandhaPreset11description
FN:159,_RNvMs_NtNtCsfOVo3o6Yfnu_12pandora_core23skandha_implementations15skandha_factoryNtB4_13SkandhaPreset3all
FNDA:3,_RNvMNtNtCsfOVo3o6Yfnu_12pandora_core23skandha_implementations15skandha_factoryNtB2_14SkandhaFactory21create_basic_skandhas
FNDA:1,_RNvMNtNtCsfOVo3o6Yfnu_12pandora_core23skandha_implementations15skandha_factoryNtB2_14SkandhaFactory21create_debug_skandhas
FNDA:1,_RNvMNtNtCsfOVo3o6Yfnu_12pandora_core23skandha_implementations15skandha_factoryNtB2_14SkandhaFactory23create_minimal_skandhas
FNDA:5,_RNvMNtNtCsfOVo3o6Yfnu_12pandora_core23skandha_implementations15skandha_factoryNtB2_14SkandhaFactory23create_preset_processor
FNDA:3,_RNvMNtNtCsfOVo3o6Yfnu_12pandora_core23skandha_implementations15skandha_factoryNtB2_14SkandhaFactory24create_advanced_skandhas
FNDA:1,_RNvMNtNtCsfOVo3o6Yfnu_12pandora_core23skandha_implementations15skandha_factoryNtB2_14SkandhaFactory31create_custom_advanced_skandhas
FNDA:1,_RNvMNtNtCsfOVo3o6Yfnu_12pandora_core23skandha_implementations15skandha_factoryNtB2_14SkandhaFactory32create_high_performance_skandhas
FNDA:10,_RNvMs_NtNtCsfOVo3o6Yfnu_12pandora_core23skandha_implementations15skandha_factoryNtB4_13SkandhaPreset11description
FNDA:1,_RNvMs_NtNtCsfOVo3o6Yfnu_12pandora_core23skandha_implementations15skandha_factoryNtB4_13SkandhaPreset3all
FNF:9
FNH:9
DA:12,3
DA:13,3
DA:14,3
DA:15,3
DA:16,3
DA:17,3
DA:18,3
DA:19,3
DA:20,3
DA:21,3
DA:22,3
DA:23,3
DA:24,3
DA:25,3
DA:26,3
DA:29,3
DA:30,3
DA:31,3
DA:32,3
DA:33,3
DA:34,3
DA:35,3
DA:36,3
DA:37,3
DA:38,3
DA:39,3
DA:40,3
DA:41,3
DA:42,3
DA:43,3
DA:46,1
DA:47,1
DA:48,1
DA:49,1
DA:50,1
DA:51,1
DA:52,1
DA:53,1
DA:54,1
DA:55,1
DA:56,1
DA:57,1
DA:58,1
DA:59,1
DA:60,1
DA:61,1
DA:62,1
DA:63,1
DA:64,1
DA:65,1
DA:66,1
DA:69,5
DA:70,5
DA:71,5
DA:72,5
DA:73,5
DA:74,5
DA:75,5
DA:76,5
DA:77,1
DA:78,1
DA:79,1
DA:80,1
DA:81,1
DA:83,5
DA:86,1
DA:87,1
DA:88,1
DA:89,1
DA:90,1
DA:91,1
DA:92,1
DA:93,1
DA:94,1
DA:95,1
DA:96,1
DA:97,1
DA:98,1
DA:99,1
DA:100,1
DA:103,1
DA:104,1
DA:105,1
DA:106,1
DA:107,1
DA:108,1
DA:109,1
DA:110,1
DA:111,1
DA:112,1
DA:113,1
DA:114,1
DA:115,1
DA:116,1
DA:117,1
DA:120,1
DA:121,1
DA:122,1
DA:123,1
DA:124,1
DA:125,1
DA:126,1
DA:127,1
DA:128,1
DA:148,10
DA:149,10
DA:150,2
DA:151,2
DA:152,2
DA:153,2
DA:154,2
DA:156,10
DA:159,1
DA:160,1
DA:161,1
DA:162,1
DA:163,1
DA:164,1
DA:165,1
DA:167,1
BRF:0
BRH:0
LF:120
LH:120
end_of_record
SF:/home/ybao/B.1/B.1_COS/sdk/pandora_core/src/skandha_implementations/tests.rs
FN:9,_RNCNvNtNtNtCsfOVo3o6Yfnu_12pandora_core23skandha_implementations5tests5testss_26test_advanced_rupa_skandha0B9_
FN:102,_RNCNvNtNtNtCsfOVo3o6Yfnu_12pandora_core23skandha_implementations5tests5testss_26test_skandha_factory_basic0B9_
FN:39,_RNCNvNtNtNtCsfOVo3o6Yfnu_12pandora_core23skandha_implementations5tests5testss_27test_advanced_sanna_skandha0B9_
FN:141,_RNCNvNtNtNtCsfOVo3o6Yfnu_12pandora_core23skandha_implementations5tests5testss_27test_skandha_factory_custom0B9_
FN:20,_RNCNvNtNtNtCsfOVo3o6Yfnu_12pandora_core23skandha_implementations5tests5testss_28test_advanced_vedana_skandha0B9_
FN:124,_RNCNvNtNtNtCsfOVo3o6Yfnu_12pandora_core23skandha_implementations5tests5testss_28test_skandha_factory_presets0B9_
FN:74,_RNCNvNtNtNtCsfOVo3o6Yfnu_12pandora_core23skandha_implementations5tests5testss_29test_advanced_vinnana_skandha0B9_
FN:113,_RNCNvNtNtNtCsfOVo3o6Yfnu_12pandora_core23skandha_implementations5tests5testss_29test_skandha_factory_advanced0B9_
FN:54,_RNCNvNtNtNtCsfOVo3o6Yfnu_12pandora_core23skandha_implementations5tests5testss_30test_advanced_sankhara_skandha0B9_
FN:158,_RNCNvNtNtNtCsfOVo3o6Yfnu_12pandora_core23skandha_implementations5tests5testss_32test_skandha_preset_descriptions0B9_
FN:167,_RNCNvNtNtNtCsfOVo3o6Yfnu_12pandora_core23skandha_implementations5tests5testss_33test_advanced_skandha_integration0B9_
FN:9,_RNvNtNtNtCsfOVo3o6Yfnu_12pandora_core23skandha_implementations5tests5testss_26test_advanced_rupa_skandha
FN:102,_RNvNtNtNtCsfOVo3o6Yfnu_12pandora_core23skandha_implementations5tests5testss_26test_skandha_factory_basic
FN:39,_RNvNtNtNtCsfOVo3o6Yfnu_12pandora_core23skandha_implementations5tests5testss_27test_advanced_sanna_skandha
FN:141,_RNvNtNtNtCsfOVo3o6Yfnu_12pandora_core23skandha_implementations5tests5testss_27test_skandha_factory_custom
FN:20,_RNvNtNtNtCsfOVo3o6Yfnu_12pandora_core23skandha_implementations5tests5testss_28test_advanced_vedana_skandha
FN:124,_RNvNtNtNtCsfOVo3o6Yfnu_12pandora_core23skandha_implementations5tests5testss_28test_skandha_factory_presets
FN:74,_RNvNtNtNtCsfOVo3o6Yfnu_12pandora_core23skandha_implementations5tests5testss_29test_advanced_vinnana_skandha
FN:113,_RNvNtNtNtCsfOVo3o6Yfnu_12pandora_core23skandha_implementations5tests5testss_29test_skandha_factory_advanced
FN:54,_RNvNtNtNtCsfOVo3o6Yfnu_12pandora_core23skandha_implementations5tests5testss_30test_advanced_sankhara_skandha
FN:158,_RNvNtNtNtCsfOVo3o6Yfnu_12pandora_core23skandha_implementations5tests5testss_32test_skandha_preset_descriptions
FN:167,_RNvNtNtNtCsfOVo3o6Yfnu_12pandora_core23skandha_implementations5tests5testss_33test_advanced_skandha_integration
FNDA:1,_RNCNvNtNtNtCsfOVo3o6Yfnu_12pandora_core23skandha_implementations5tests5testss_26test_advanced_rupa_skandha0B9_
FNDA:1,_RNCNvNtNtNtCsfOVo3o6Yfnu_12pandora_core23skandha_implementations5tests5testss_26test_skandha_factory_basic0B9_
FNDA:1,_RNCNvNtNtNtCsfOVo3o6Yfnu_12pandora_core23skandha_implementations5tests5testss_27test_advanced_sanna_skandha0B9_
FNDA:1,_RNCNvNtNtNtCsfOVo3o6Yfnu_12pandora_core23skandha_implementations5tests5testss_27test_skandha_factory_custom0B9_
FNDA:1,_RNCNvNtNtNtCsfOVo3o6Yfnu_12pandora_core23skandha_implementations5tests5testss_28test_advanced_vedana_skandha0B9_
FNDA:1,_RNCNvNtNtNtCsfOVo3o6Yfnu_12pandora_core23skandha_implementations5tests5testss_28test_skandha_factory_presets0B9_
FNDA:1,_RNCNvNtNtNtCsfOVo3o6Yfnu_12pandora_core23skandha_implementations5tests5testss_29test_advanced_vinnana_skandha0B9_
FNDA:1,_RNCNvNtNtNtCsfOVo3o6Yfnu_12pandora_core23skandha_implementations5tests5testss_29test_skandha_factory_advanced0B9_
FNDA:1,_RNCNvNtNtNtCsfOVo3o6Yfnu_12pandora_core23skandha_implementations5tests5testss_30test_advanced_sankhara_skandha0B9_
FNDA:1,_RNCNvNtNtNtCsfOVo3o6Yfnu_12pandora_core23skandha_implementations5tests5testss_32test_skandha_preset_descriptions0B9_
FNDA:1,_RNCNvNtNtNtCsfOVo3o6Yfnu_12pandora_core23skandha_implementations5tests5testss_33test_advanced_skandha_integration0B9_
FNDA:1,_RNvNtNtNtCsfOVo3o6Yfnu_12pandora_core23skandha_implementations5tests5testss_26test_advanced_rupa_skandha
FNDA:1,_RNvNtNtNtCsfOVo3o6Yfnu_12pandora_core23skandha_implementations5tests5testss_26test_skandha_factory_basic
FNDA:1,_RNvNtNtNtCsfOVo3o6Yfnu_12pandora_core23skandha_implementations5tests5testss_27test_advanced_sanna_skandha
FNDA:1,_RNvNtNtNtCsfOVo3o6Yfnu_12pandora_core23skandha_implementations5tests5testss_27test_skandha_factory_custom
FNDA:1,_RNvNtNtNtCsfOVo3o6Yfnu_12pandora_core23skandha_implementations5tests5testss_28test_advanced_vedana_skandha
FNDA:1,_RNvNtNtNtCsfOVo3o6Yfnu_12pandora_core23skandha_implementations5tests5testss_28test_skandha_factory_presets
FNDA:1,_RNvNtNtNtCsfOVo3o6Yfnu_12pandora_core23skandha_implementations5tests5testss_29test_advanced_vinnana_skandha
FNDA:1,_RNvNtNtNtCsfOVo3o6Yfnu_12pandora_core23skandha_implementations5tests5testss_29test_skandha_factory_advanced
FNDA:1,_RNvNtNtNtCsfOVo3o6Yfnu_12pandora_core23skandha_implementations5tests5testss_30test_advanced_sankhara_skandha
FNDA:1,_RNvNtNtNtCsfOVo3o6Yfnu_12pandora_core23skandha_implementations5tests5testss_32test_skandha_preset_descriptions
FNDA:1,_RNvNtNtNtCsfOVo3o6Yfnu_12pandora_core23skandha_implementations5tests5testss_33test_advanced_skandha_integration
FNF:22
FNH:22
DA:9,1
DA:10,1
DA:11,1
DA:13,1
DA:15,1
DA:16,1
DA:17,1
DA:20,1
DA:21,1
DA:22,1
DA:23,1
DA:24,1
DA:25,1
DA:27,1
DA:29,1
DA:30,1
DA:31,1
DA:32,1
DA:33,1
DA:34,1
DA:35,1
DA:36,1
DA:39,1
DA:40,1
DA:41,1
DA:42,1
DA:43,1
DA:44,1
DA:46,1
DA:48,1
DA:49,1
DA:50,1
DA:51,1
DA:54,1
DA:55,1
DA:56,1
DA:57,1
DA:58,1
DA:59,1
DA:60,1
DA:61,1
DA:62,1
DA:63,1
DA:64,1
DA:66,1
DA:68,1
DA:69,1
DA:70,1
DA:71,1
DA:74,1
DA:75,1
DA:76,1
DA:77,1
DA:78,1
DA:79,1
DA:80,1
DA:81,1
DA:82,1
DA:83,1
DA:84,1
DA:85,1
DA:86,1
DA:87,1
DA:88,1
DA:89,1
DA:90,1
DA:92,1
DA:94,1
DA:95,1
DA:96,1
DA:97,1
DA:98,1
DA:99,1
DA:102,1
DA:103,1
DA:105,1
DA:106,1
DA:107,1
DA:108,1
DA:109,1
DA:110,1
DA:113,1
DA:114,1
DA:116,1
DA:117,1
DA:118,1
DA:119,1
DA:120,1
DA:121,1
DA:124,1
DA:125,5
DA:126,5
DA:127,1
DA:128,1
DA:129,5
DA:130,5
DA:131,5
DA:132,5
DA:133,5
DA:134,1
DA:135,1
DA:136,5
DA:137,1
DA:138,1
DA:141,1
DA:142,1
DA:143,1
DA:144,1
DA:145,1
DA:146,1
DA:147,1
DA:148,1
DA:150,1
DA:151,1
DA:152,1
DA:153,1
DA:154,1
DA:155,1
DA:158,1
DA:159,1
DA:160,1
DA:161,1
DA:162,1
DA:163,1
DA:164,1
DA:167,1
DA:169,1
DA:171,1
DA:174,1
DA:177,1
DA:178,1
DA:181,1
DA:182,1
DA:183,1
DA:186,1
DA:187,1
DA:190,1
DA:191,1
DA:193,1
DA:194,1
DA:195,1
DA:196,1
BRF:0
BRH:0
LF:174
LH:173
end_of_record
SF:/home/ybao/B.1/B.1_COS/sdk/pandora_cwm/src/interdependent_repr/irl.rs
FN:45,_RNvMNtNtCs47QSsSs8xqE_11pandora_cwm19interdependent_repr3irlNtB2_21InterdependentNetwork10add_entity
FN:52,_RNvMNtNtCs47QSsSs8xqE_11pandora_cwm19interdependent_repr3irlNtB2_21InterdependentNetwork16add_relationship
FN:93,_RNvMNtNtCs47QSsSs8xqE_11pandora_cwm19interdependent_repr3irlNtB2_21InterdependentNetwork19calculate_influence
FN:142,_RNvMNtNtCs47QSsSs8xqE_11pandora_cwm19interdependent_repr3irlNtB2_21InterdependentNetwork19propagate_influence
FN:131,_RNvMNtNtCs47QSsSs8xqE_11pandora_cwm19interdependent_repr3irlNtB2_21InterdependentNetwork19update_entity_state
FN:113,_RNvMNtNtCs47QSsSs8xqE_11pandora_cwm19interdependent_repr3irlNtB2_21InterdependentNetwork20find_key_influencers
FN:62,_RNvMNtNtCs47QSsSs8xqE_11pandora_cwm19interdependent_repr3irlNtB2_21InterdependentNetwork35learn_interdependent_representation
FN:36,_RNvMNtNtCs47QSsSs8xqE_11pandora_cwm19interdependent_repr3irlNtB2_21InterdependentNetwork3new
FN:126,_RNCNvMNtNtCs47QSsSs8xqE_11pandora_cwm19interdependent_repr3irlNtB4_21InterdependentNetwork20find_key_influencers0B8_
FN:126,_RNCNvMNtNtCsc3Us6ssb80g_11pandora_cwm19interdependent_repr3irlNtB4_21InterdependentNetwork20find_key_influencers0B8_
FN:45,_RNvMNtNtCsc3Us6ssb80g_11pandora_cwm19interdependent_repr3irlNtB2_21InterdependentNetwork10add_entity
FN:52,_RNvMNtNtCsc3Us6ssb80g_11pandora_cwm19interdependent_repr3irlNtB2_21InterdependentNetwork16add_relationship
FN:93,_RNvMNtNtCsc3Us6ssb80g_11pandora_cwm19interdependent_repr3irlNtB2_21InterdependentNetwork19calculate_influence
FN:142,_RNvMNtNtCsc3Us6ssb80g_11pandora_cwm19interdependent_repr3irlNtB2_21InterdependentNetwork19propagate_influence
FN:131,_RNvMNtNtCsc3Us6ssb80g_11pandora_cwm19interdependent_repr3irlNtB2_21InterdependentNetwork19update_entity_state
FN:113,_RNvMNtNtCsc3Us6ssb80g_11pandora_cwm19interdependent_repr3irlNtB2_21InterdependentNetwork20find_key_influencers
FN:62,_RNvMNtNtCsc3Us6ssb80g_11pandora_cwm19interdependent_repr3irlNtB2_21InterdependentNetwork35learn_interdependent_representation
FN:36,_RNvMNtNtCsc3Us6ssb80g_11pandora_cwm19interdependent_repr3irlNtB2_21InterdependentNetwork3new
FNDA:3,_RNvMNtNtCs47QSsSs8xqE_11pandora_cwm19interdependent_repr3irlNtB2_21InterdependentNetwork10add_entity
FNDA:3,_RNvMNtNtCs47QSsSs8xqE_11pandora_cwm19interdependent_repr3irlNtB2_21InterdependentNetwork16add_relationship
FNDA:10,_RNvMNtNtCs47QSsSs8xqE_11pandora_cwm19interdependent_repr3irlNtB2_21InterdependentNetwork19calculate_influence
FNDA:1,_RNvMNtNtCs47QSsSs8xqE_11pandora_cwm19interdependent_repr3irlNtB2_21InterdependentNetwork19propagate_influence
FNDA:1,_RNvMNtNtCs47QSsSs8xqE_11pandora_cwm19interdependent_repr3irlNtB2_21InterdependentNetwork19update_entity_state
FNDA:2,_RNvMNtNtCs47QSsSs8xqE_11pandora_cwm19interdependent_repr3irlNtB2_21InterdependentNetwork20find_key_influencers
FNDA:4,_RNvMNtNtCs47QSsSs8xqE_11pandora_cwm19interdependent_repr3irlNtB2_21InterdependentNetwork35learn_interdependent_representation
FNDA:1,_RNvMNtNtCs47QSsSs8xqE_11pandora_cwm19interdependent_repr3irlNtB2_21InterdependentNetwork3new
FNDA:1,_RNCNvMNtNtCs47QSsSs8xqE_11pandora_cwm19interdependent_repr3irlNtB4_21InterdependentNetwork20find_key_influencers0B8_
FNDA:0,_RNCNvMNtNtCsc3Us6ssb80g_11pandora_cwm19interdependent_repr3irlNtB4_21InterdependentNetwork20find_key_influencers0B8_
FNDA:0,_RNvMNtNtCsc3Us6ssb80g_11pandora_cwm19interdependent_repr3irlNtB2_21InterdependentNetwork10add_entity
FNDA:0,_RNvMNtNtCsc3Us6ssb80g_11pandora_cwm19interdependent_repr3irlNtB2_21InterdependentNetwork16add_relationship
FNDA:0,_RNvMNtNtCsc3Us6ssb80g_11pandora_cwm19interdependent_repr3irlNtB2_21InterdependentNetwork19calculate_influence
FNDA:0,_RNvMNtNtCsc3Us6ssb80g_11pandora_cwm19interdependent_repr3irlNtB2_21InterdependentNetwork19propagate_influence
FNDA:0,_RNvMNtNtCsc3Us6ssb80g_11pandora_cwm19interdependent_repr3irlNtB2_21InterdependentNetwork19update_entity_state
FNDA:0,_RNvMNtNtCsc3Us6ssb80g_11pandora_cwm19interdependent_repr3irlNtB2_21InterdependentNetwork20find_key_influencers
FNDA:0,_RNvMNtNtCsc3Us6ssb80g_11pandora_cwm19interdependent_repr3irlNtB2_21InterdependentNetwork35learn_interdependent_representation
FNDA:0,_RNvMNtNtCsc3Us6ssb80g_11pandora_cwm19interdependent_repr3irlNtB2_21InterdependentNetwork3new
FNF:9
FNH:9
DA:36,1
DA:37,1
DA:38,1
DA:39,1
DA:40,1
DA:41,1
DA:42,1
DA:45,3
DA:46,3
DA:47,3
DA:48,3
DA:52,3
DA:53,3
DA:54,3
DA:55,3
DA:62,4
DA:63,4
DA:64,4
DA:67,4
DA:69,10
DA:70,6
DA:72,6
DA:75,18
DA:76,18
DA:77,18
DA:78,18
DA:80,0
DA:84,4
DA:85,4
DA:86,4
DA:87,4
DA:88,4
DA:89,0
DA:90,4
DA:93,10
DA:95,10
DA:96,10
DA:97,10
DA:100,10
DA:101,40
DA:102,30
DA:103,14
DA:104,3
DA:105,11
DA:106,16
DA:109,10
DA:110,10
DA:113,2
DA:114,2
DA:116,8
DA:117,6
DA:118,4
DA:119,4
DA:120,2
DA:121,2
DA:122,2
DA:126,2
DA:127,2
DA:128,2
DA:131,1
DA:132,1
DA:133,1
DA:134,1
DA:135,1
DA:136,1
DA:137,1
DA:138,1
DA:139,1
DA:142,1
DA:143,1
DA:145,3
DA:146,2
DA:147,2
DA:148,2
DA:149,2
DA:150,2
DA:151,2
DA:152,2
DA:154,1
BRF:0
BRH:0
LF:80
LH:78
end_of_record
SF:/home/ybao/B.1/B.1_COS/sdk/pandora_cwm/src/interdependent_repr/itr_nn.rs
FN:12,_RNvMNtNtCs47QSsSs8xqE_11pandora_cwm19interdependent_repr6itr_nnNtB2_18GraphNeuralNetwork3new
FN:136,_RNvMs_NtNtCs47QSsSs8xqE_11pandora_cwm19interdependent_repr6itr_nnNtB4_30InterdependentTopoRelationalNN13process_graph
FN:132,_RNvMs_NtNtCs47QSsSs8xqE_11pandora_cwm19interdependent_repr6itr_nnNtB4_30InterdependentTopoRelationalNN30extract_topological_signatures
FN:125,_RNvMs_NtNtCs47QSsSs8xqE_11pandora_cwm19interdependent_repr6itr_nnNtB4_30InterdependentTopoRelationalNN3new
FN:12,_RNvMNtNtCsc3Us6ssb80g_11pandora_cwm19interdependent_repr6itr_nnNtB2_18GraphNeuralNetwork3new
FN:136,_RNvMs_NtNtCsc3Us6ssb80g_11pandora_cwm19interdependent_repr6itr_nnNtB4_30InterdependentTopoRelationalNN13process_graph
FN:132,_RNvMs_NtNtCsc3Us6ssb80g_11pandora_cwm19interdependent_repr6itr_nnNtB4_30InterdependentTopoRelationalNN30extract_topological_signatures
FN:125,_RNvMs_NtNtCsc3Us6ssb80g_11pandora_cwm19interdependent_repr6itr_nnNtB4_30InterdependentTopoRelationalNN3new
FNDA:1,_RNvMNtNtCs47QSsSs8xqE_11pandora_cwm19interdependent_repr6itr_nnNtB2_18GraphNeuralNetwork3new
FNDA:2,_RNvMs_NtNtCs47QSsSs8xqE_11pandora_cwm19interdependent_repr6itr_nnNtB4_30InterdependentTopoRelationalNN13process_graph
FNDA:0,_RNvMs_NtNtCs47QSsSs8xqE_11pandora_cwm19interdependent_repr6itr_nnNtB4_30InterdependentTopoRelationalNN30extract_topological_signatures
FNDA:1,_RNvMs_NtNtCs47QSsSs8xqE_11pandora_cwm19interdependent_repr6itr_nnNtB4_30InterdependentTopoRelationalNN3new
FNDA:0,_RNvMNtNtCsc3Us6ssb80g_11pandora_cwm19interdependent_repr6itr_nnNtB2_18GraphNeuralNetwork3new
FNDA:0,_RNvMs_NtNtCsc3Us6ssb80g_11pandora_cwm19interdependent_repr6itr_nnNtB4_30InterdependentTopoRelationalNN13process_graph
FNDA:0,_RNvMs_NtNtCsc3Us6ssb80g_11pandora_cwm19interdependent_repr6itr_nnNtB4_30InterdependentTopoRelationalNN30extract_topological_signatures
FNDA:0,_RNvMs_NtNtCsc3Us6ssb80g_11pandora_cwm19interdependent_repr6itr_nnNtB4_30InterdependentTopoRelationalNN3new
FNF:4
FNH:3
DA:12,1
DA:13,1
DA:14,1
DA:125,1
DA:126,1
DA:127,1
DA:128,1
DA:129,1
DA:130,1
DA:132,0
DA:133,0
DA:134,0
DA:136,2
DA:137,2
DA:138,2
BRF:0
BRH:0
LF:15
LH:12
end_of_record
SF:/home/ybao/B.1/B.1_COS/sdk/pandora_cwm/src/vsa/hrr.rs
FN:10,_RNCNvNtNtCs47QSsSs8xqE_11pandora_cwm3vsa3hrr4bind0B7_
FN:23,_RNCNvNtNtCs47QSsSs8xqE_11pandora_cwm3vsa3hrr4binds0_0B7_
FN:28,_RNCNvNtNtCs47QSsSs8xqE_11pandora_cwm3vsa3hrr4binds1_0B7_
FN:11,_RNCNvNtNtCs47QSsSs8xqE_11pandora_cwm3vsa3hrr4binds_0B7_
FN:53,_RNCNvNtNtNtCsc3Us6ssb80g_11pandora_cwm3vsa3hrr5testss_18test_bind_identity0B9_
FN:59,_RNvNtNtNtCsc3Us6ssb80g_11pandora_cwm3vsa3hrr5testss_11test_bundle
FN:48,_RNvNtNtNtCsc3Us6ssb80g_11pandora_cwm3vsa3hrr5testss_18test_bind_identity
FN:10,_RNCNvNtNtCsc3Us6ssb80g_11pandora_cwm3vsa3hrr4bind0B7_
FN:23,_RNCNvNtNtCsc3Us6ssb80g_11pandora_cwm3vsa3hrr4binds0_0B7_
FN:28,_RNCNvNtNtCsc3Us6ssb80g_11pandora_cwm3vsa3hrr4binds1_0B7_
FN:11,_RNCNvNtNtCsc3Us6ssb80g_11pandora_cwm3vsa3hrr4binds_0B7_
FN:6,_RNvNtNtCsc3Us6ssb80g_11pandora_cwm3vsa3hrr4bind
FN:32,_RNvNtNtCsc3Us6ssb80g_11pandora_cwm3vsa3hrr6bundle
FNDA:0,_RNCNvNtNtCs47QSsSs8xqE_11pandora_cwm3vsa3hrr4bind0B7_
FNDA:0,_RNCNvNtNtCs47QSsSs8xqE_11pandora_cwm3vsa3hrr4binds0_0B7_
FNDA:0,_RNCNvNtNtCs47QSsSs8xqE_11pandora_cwm3vsa3hrr4binds1_0B7_
FNDA:0,_RNCNvNtNtCs47QSsSs8xqE_11pandora_cwm3vsa3hrr4binds_0B7_
FNDA:4,_RNCNvNtNtNtCsc3Us6ssb80g_11pandora_cwm3vsa3hrr5testss_18test_bind_identity0B9_
FNDA:1,_RNvNtNtNtCsc3Us6ssb80g_11pandora_cwm3vsa3hrr5testss_11test_bundle
FNDA:1,_RNvNtNtNtCsc3Us6ssb80g_11pandora_cwm3vsa3hrr5testss_18test_bind_identity
FNDA:4,_RNCNvNtNtCsc3Us6ssb80g_11pandora_cwm3vsa3hrr4bind0B7_
FNDA:4,_RNCNvNtNtCsc3Us6ssb80g_11pandora_cwm3vsa3hrr4binds0_0B7_
FNDA:4,_RNCNvNtNtCsc3Us6ssb80g_11pandora_cwm3vsa3hrr4binds1_0B7_
FNDA:4,_RNCNvNtNtCsc3Us6ssb80g_11pandora_cwm3vsa3hrr4binds_0B7_
FNDA:1,_RNvNtNtCsc3Us6ssb80g_11pandora_cwm3vsa3hrr4bind
FNDA:1,_RNvNtNtCsc3Us6ssb80g_11pandora_cwm3vsa3hrr6bundle
FNF:9
FNH:9
DA:6,1
DA:7,1
DA:8,1
DA:10,4
DA:11,4
DA:13,1
DA:14,1
DA:15,1
DA:17,1
DA:18,1
DA:20,1
DA:21,1
DA:22,1
DA:23,4
DA:24,1
DA:26,1
DA:28,4
DA:29,1
DA:32,1
DA:33,1
DA:34,1
DA:35,1
DA:36,3
DA:37,2
DA:38,6
DA:40,1
DA:41,1
DA:48,1
DA:49,1
DA:50,1
DA:51,1
DA:52,1
DA:53,4
DA:54,4
DA:55,4
DA:56,1
DA:59,1
DA:60,1
DA:61,1
DA:62,1
DA:63,1
DA:64,1
BRF:0
BRH:0
LF:47
LH:47
end_of_record
SF:/home/ybao/B.1/B.1_COS/sdk/pandora_learning_engine/src/lib.rs
FN:24,_RNvMCsbFF8whRY7sM_23pandora_learning_engineNtB2_14LearningEngine16calculate_reward
FN:53,_RNvMCsbFF8whRY7sM_23pandora_learning_engineNtB2_14LearningEngine25get_total_weighted_reward
FN:18,_RNvMCsbFF8whRY7sM_23pandora_learning_engineNtB2_14LearningEngine3new
FN:24,_RNvMCscVwwENaI6ms_23pandora_learning_engineNtB2_14LearningEngine16calculate_reward
FN:53,_RNvMCscVwwENaI6ms_23pandora_learning_engineNtB2_14LearningEngine25get_total_weighted_reward
FN:18,_RNvMCscVwwENaI6ms_23pandora_learning_engineNtB2_14LearningEngine3new
FNDA:8,_RNvMCsbFF8whRY7sM_23pandora_learning_engineNtB2_14LearningEngine16calculate_reward
FNDA:7,_RNvMCsbFF8whRY7sM_23pandora_learning_engineNtB2_14LearningEngine25get_total_weighted_reward
FNDA:3,_RNvMCsbFF8whRY7sM_23pandora_learning_engineNtB2_14LearningEngine3new
FNDA:0,_RNvMCscVwwENaI6ms_23pandora_learning_engineNtB2_14LearningEngine16calculate_reward
FNDA:0,_RNvMCscVwwENaI6ms_23pandora_learning_engineNtB2_14LearningEngine25get_total_weighted_reward
FNDA:0,_RNvMCscVwwENaI6ms_23pandora_learning_engineNtB2_14LearningEngine3new
FNF:3
FNH:3
DA:18,3
DA:19,3
DA:20,3
DA:24,8
DA:25,8
DA:26,8
DA:27,8
DA:28,8
DA:29,8
DA:30,8
DA:34,8
DA:35,8
DA:38,8
DA:39,8
DA:40,8
DA:41,8
DA:42,8
DA:43,8
DA:44,8
DA:46,8
DA:47,8
DA:48,8
DA:49,8
DA:50,8
DA:53,7
DA:54,7
DA:55,7
DA:56,7
DA:57,7
DA:58,7
BRF:0
BRH:0
LF:30
LH:30
end_of_record
SF:/home/ybao/B.1/B.1_COS/sdk/pandora_learning_engine/src/skandha_integration.rs
FN:29,_RNCNvMNtCsbFF8whRY7sM_23pandora_learning_engine19skandha_integrationNtB4_28SkandhaProcessorWithLearning22run_and_evaluate_cycle0CsgzNQ116i4HN_27learning_engine_integration
FN:52,_RNvMNtCsbFF8whRY7sM_23pandora_learning_engine19skandha_integrationNtB2_28SkandhaProcessorWithLearning15learning_engine
FN:24,_RNvMNtCsbFF8whRY7sM_23pandora_learning_engine19skandha_integrationNtB2_28SkandhaProcessorWithLearning22run_and_evaluate_cycle
FN:15,_RNvMNtCsbFF8whRY7sM_23pandora_learning_engine19skandha_integrationNtB2_28SkandhaProcessorWithLearning3new
FN:47,_RNvMNtCsbFF8whRY7sM_23pandora_learning_engine19skandha_integrationNtB2_28SkandhaProcessorWithLearning9processor
FN:29,_RNCNvMNtCscVwwENaI6ms_23pandora_learning_engine19skandha_integrationNtB4_28SkandhaProcessorWithLearning22run_and_evaluate_cycle0B6_
FN:52,_RNvMNtCscVwwENaI6ms_23pandora_learning_engine19skandha_integrationNtB2_28SkandhaProcessorWithLearning15learning_engine
FN:24,_RNvMNtCscVwwENaI6ms_23pandora_learning_engine19skandha_integrationNtB2_28SkandhaProcessorWithLearning22run_and_evaluate_cycle
FN:15,_RNvMNtCscVwwENaI6ms_23pandora_learning_engine19skandha_integrationNtB2_28SkandhaProcessorWithLearning3new
FN:47,_RNvMNtCscVwwENaI6ms_23pandora_learning_engine19skandha_integrationNtB2_28SkandhaProcessorWithLearning9processor
FNDA:1,_RNCNvMNtCsbFF8whRY7sM_23pandora_learning_engine19skandha_integrationNtB4_28SkandhaProcessorWithLearning22run_and_evaluate_cycle0CsgzNQ116i4HN_27learning_engine_integration
FNDA:0,_RNvMNtCsbFF8whRY7sM_23pandora_learning_engine19skandha_integrationNtB2_28SkandhaProcessorWithLearning15learning_engine
FNDA:1,_RNvMNtCsbFF8whRY7sM_23pandora_learning_engine19skandha_integrationNtB2_28SkandhaProcessorWithLearning22run_and_evaluate_cycle
FNDA:1,_RNvMNtCsbFF8whRY7sM_23pandora_learning_engine19skandha_integrationNtB2_28SkandhaProcessorWithLearning3new
FNDA:0,_RNvMNtCsbFF8whRY7sM_23pandora_learning_engine19skandha_integrationNtB2_28SkandhaProcessorWithLearning9processor
FNDA:0,_RNCNvMNtCscVwwENaI6ms_23pandora_learning_engine19skandha_integrationNtB4_28SkandhaProcessorWithLearning22run_and_evaluate_cycle0B6_
FNDA:0,_RNvMNtCscVwwENaI6ms_23pandora_learning_engine19skandha_integrationNtB2_28SkandhaProcessorWithLearning15learning_engine
FNDA:0,_RNvMNtCscVwwENaI6ms_23pandora_learning_engine19skandha_integrationNtB2_28SkandhaProcessorWithLearning22run_and_evaluate_cycle
FNDA:0,_RNvMNtCscVwwENaI6ms_23pandora_learning_engine19skandha_integrationNtB2_28SkandhaProcessorWithLearning3new
FNDA:0,_RNvMNtCscVwwENaI6ms_23pandora_learning_engine19skandha_integrationNtB2_28SkandhaProcessorWithLearning9processor
FNF:5
FNH:3
DA:15,1
DA:16,1
DA:17,1
DA:18,1
DA:19,1
DA:20,1
DA:21,1
DA:24,1
DA:25,1
DA:26,1
DA:27,1
DA:28,1
DA:29,1
DA:30,1
DA:33,1
DA:36,1
DA:39,1
DA:41,1
DA:43,1
DA:44,1
DA:47,0
DA:48,0
DA:49,0
DA:52,0
DA:53,0
DA:54,0
BRF:0
BRH:0
LF:27
LH:21
end_of_record
SF:/home/ybao/B.1/B.1_COS/sdk/pandora_learning_engine/src/transcendental_processor.rs
FN:35,_RNCNvMNtCscVwwENaI6ms_23pandora_learning_engine24transcendental_processorNtB4_23TranscendentalProcessor24run_transcendental_cycle0B6_
FN:70,_RNvMNtCscVwwENaI6ms_23pandora_learning_engine24transcendental_processorNtB2_23TranscendentalProcessor15learning_engine
FN:30,_RNvMNtCscVwwENaI6ms_23pandora_learning_engine24transcendental_processorNtB2_23TranscendentalProcessor24run_transcendental_cycle
FN:75,_RNvMNtCscVwwENaI6ms_23pandora_learning_engine24transcendental_processorNtB2_23TranscendentalProcessor3mcg
FN:19,_RNvMNtCscVwwENaI6ms_23pandora_learning_engine24transcendental_processorNtB2_23TranscendentalProcessor3new
FN:80,_RNvMNtCscVwwENaI6ms_23pandora_learning_engine24transcendental_processorNtB2_23TranscendentalProcessor3sie
FN:65,_RNvMNtCscVwwENaI6ms_23pandora_learning_engine24transcendental_processorNtB2_23TranscendentalProcessor9processor
FN:35,_RNCNvMNtCsbFF8whRY7sM_23pandora_learning_engine24transcendental_processorNtB4_23TranscendentalProcessor24run_transcendental_cycle0CsoxmhnnUJuQ_19transcendental_loop
FN:70,_RNvMNtCsbFF8whRY7sM_23pandora_learning_engine24transcendental_processorNtB2_23TranscendentalProcessor15learning_engine
FN:30,_RNvMNtCsbFF8whRY7sM_23pandora_learning_engine24transcendental_processorNtB2_23TranscendentalProcessor24run_transcendental_cycle
FN:75,_RNvMNtCsbFF8whRY7sM_23pandora_learning_engine24transcendental_processorNtB2_23TranscendentalProcessor3mcg
FN:19,_RNvMNtCsbFF8whRY7sM_23pandora_learning_engine24transcendental_processorNtB2_23TranscendentalProcessor3new
FN:80,_RNvMNtCsbFF8whRY7sM_23pandora_learning_engine24transcendental_processorNtB2_23TranscendentalProcessor3sie
FN:65,_RNvMNtCsbFF8whRY7sM_23pandora_learning_engine24transcendental_processorNtB2_23TranscendentalProcessor9processor
FNDA:0,_RNCNvMNtCscVwwENaI6ms_23pandora_learning_engine24transcendental_processorNtB4_23TranscendentalProcessor24run_transcendental_cycle0B6_
FNDA:0,_RNvMNtCscVwwENaI6ms_23pandora_learning_engine24transcendental_processorNtB2_23TranscendentalProcessor15learning_engine
FNDA:0,_RNvMNtCscVwwENaI6ms_23pandora_learning_engine24transcendental_processorNtB2_23TranscendentalProcessor24run_transcendental_cycle
FNDA:0,_RNvMNtCscVwwENaI6ms_23pandora_learning_engine24transcendental_processorNtB2_23TranscendentalProcessor3mcg
FNDA:0,_RNvMNtCscVwwENaI6ms_23pandora_learning_engine24transcendental_processorNtB2_23TranscendentalProcessor3new
FNDA:0,_RNvMNtCscVwwENaI6ms_23pandora_learning_engine24transcendental_processorNtB2_23TranscendentalProcessor3sie
FNDA:0,_RNvMNtCscVwwENaI6ms_23pandora_learning_engine24transcendental_processorNtB2_23TranscendentalProcessor9processor
FNDA:1,_RNCNvMNtCsbFF8whRY7sM_23pandora_learning_engine24transcendental_processorNtB4_23TranscendentalProcessor24run_transcendental_cycle0CsoxmhnnUJuQ_19transcendental_loop
FNDA:0,_RNvMNtCsbFF8whRY7sM_23pandora_learning_engine24transcendental_processorNtB2_23TranscendentalProcessor15learning_engine
FNDA:1,_RNvMNtCsbFF8whRY7sM_23pandora_learning_engine24transcendental_processorNtB2_23TranscendentalProcessor24run_transcendental_cycle
FNDA:0,_RNvMNtCsbFF8whRY7sM_23pandora_learning_engine24transcendental_processorNtB2_23TranscendentalProcessor3mcg
FNDA:1,_RNvMNtCsbFF8whRY7sM_23pandora_learning_engine24transcendental_processorNtB2_23TranscendentalProcessor3new
FNDA:0,_RNvMNtCsbFF8whRY7sM_23pandora_learning_engine24transcendental_processorNtB2_23TranscendentalProcessor3sie
FNDA:0,_RNvMNtCsbFF8whRY7sM_23pandora_learning_engine24transcendental_processorNtB2_23TranscendentalProcessor9processor
FNF:7
FNH:3
DA:19,1
DA:20,1
DA:21,1
DA:22,1
DA:23,1
DA:24,1
DA:25,1
DA:26,1
DA:27,1
DA:30,1
DA:31,1
DA:32,1
DA:33,1
DA:34,1
DA:35,1
DA:36,1
DA:39,1
DA:42,1
DA:43,1
DA:46,1
DA:49,1
DA:50,1
DA:51,1
DA:52,1
DA:53,0
DA:54,0
DA:55,0
DA:61,1
DA:62,1
DA:65,0
DA:66,0
DA:67,0
DA:70,0
DA:71,0
DA:72,0
DA:75,0
DA:76,0
DA:77,0
DA:80,0
DA:81,0
DA:82,0
BRF:0
BRH:0
LF:42
LH:27
end_of_record
SF:/home/ybao/B.1/B.1_COS/sdk/pandora_learning_engine/src/world_models.rs
FN:16,_RNvMNtCsbFF8whRY7sM_23pandora_learning_engine12world_modelsNtB2_16SimpleWorldModel3new
FN:28,_RNvMNtCsbFF8whRY7sM_23pandora_learning_engine12world_modelsNtB2_16SimpleWorldModel6evolve
FN:87,_RNvMs0_NtCsbFF8whRY7sM_23pandora_learning_engine12world_modelsNtB5_18AdaptiveWorldModel11spawn_child
FN:59,_RNvMs0_NtCsbFF8whRY7sM_23pandora_learning_engine12world_modelsNtB5_18AdaptiveWorldModel3new
FN:70,_RNvMs0_NtCsbFF8whRY7sM_23pandora_learning_engine12world_modelsNtB5_18AdaptiveWorldModel5adapt
FN:110,_RNvNtCsbFF8whRY7sM_23pandora_learning_engine12world_models20test_learning_engine
FN:103,_RNvXs1_NtCsbFF8whRY7sM_23pandora_learning_engine12world_modelsNtB5_18AdaptiveWorldModelNtNtCs74ZtNTl7RRg_12pandora_core11world_model10WorldModel20get_prediction_error
FN:97,_RNvXs1_NtCsbFF8whRY7sM_23pandora_learning_engine12world_modelsNtB5_18AdaptiveWorldModelNtNtCs74ZtNTl7RRg_12pandora_core11world_model10WorldModel7get_mdl
FN:40,_RNvXs_NtCsbFF8whRY7sM_23pandora_learning_engine12world_modelsNtB4_16SimpleWorldModelNtNtCs74ZtNTl7RRg_12pandora_core11world_model10WorldModel20get_prediction_error
FN:35,_RNvXs_NtCsbFF8whRY7sM_23pandora_learning_engine12world_modelsNtB4_16SimpleWorldModelNtNtCs74ZtNTl7RRg_12pandora_core11world_model10WorldModel7get_mdl
FN:16,_RNvMNtCscVwwENaI6ms_23pandora_learning_engine12world_modelsNtB2_16SimpleWorldModel3new
FN:28,_RNvMNtCscVwwENaI6ms_23pandora_learning_engine12world_modelsNtB2_16SimpleWorldModel6evolve
FN:87,_RNvMs0_NtCscVwwENaI6ms_23pandora_learning_engine12world_modelsNtB5_18AdaptiveWorldModel11spawn_child
FN:59,_RNvMs0_NtCscVwwENaI6ms_23pandora_learning_engine12world_modelsNtB5_18AdaptiveWorldModel3new
FN:70,_RNvMs0_NtCscVwwENaI6ms_23pandora_learning_engine12world_modelsNtB5_18AdaptiveWorldModel5adapt
FN:110,_RNvNtCscVwwENaI6ms_23pandora_learning_engine12world_models20test_learning_engine
FN:103,_RNvXs1_NtCscVwwENaI6ms_23pandora_learning_engine12world_modelsNtB5_18AdaptiveWorldModelNtNtCs74ZtNTl7RRg_12pandora_core11world_model10WorldModel20get_prediction_error
FN:97,_RNvXs1_NtCscVwwENaI6ms_23pandora_learning_engine12world_modelsNtB5_18AdaptiveWorldModelNtNtCs74ZtNTl7RRg_12pandora_core11world_model10WorldModel7get_mdl
FN:40,_RNvXs_NtCscVwwENaI6ms_23pandora_learning_engine12world_modelsNtB4_16SimpleWorldModelNtNtCs74ZtNTl7RRg_12pandora_core11world_model10WorldModel20get_prediction_error
FN:35,_RNvXs_NtCscVwwENaI6ms_23pandora_learning_engine12world_modelsNtB4_16SimpleWorldModelNtNtCs74ZtNTl7RRg_12pandora_core11world_model10WorldModel7get_mdl
FNDA:2,_RNvMNtCsbFF8whRY7sM_23pandora_learning_engine12world_modelsNtB2_16SimpleWorldModel3new
FNDA:1,_RNvMNtCsbFF8whRY7sM_23pandora_learning_engine12world_modelsNtB2_16SimpleWorldModel6evolve
FNDA:5,_RNvMs0_NtCsbFF8whRY7sM_23pandora_learning_engine12world_modelsNtB5_18AdaptiveWorldModel11spawn_child
FNDA:6,_RNvMs0_NtCsbFF8whRY7sM_23pandora_learning_engine12world_modelsNtB5_18AdaptiveWorldModel3new
FNDA:5,_RNvMs0_NtCsbFF8whRY7sM_23pandora_learning_engine12world_modelsNtB5_18AdaptiveWorldModel5adapt
FNDA:1,_RNvNtCsbFF8whRY7sM_23pandora_learning_engine12world_models20test_learning_engine
FNDA:5,_RNvXs1_NtCsbFF8whRY7sM_23pandora_learning_engine12world_modelsNtB5_18AdaptiveWorldModelNtNtCs74ZtNTl7RRg_12pandora_core11world_model10WorldModel20get_prediction_error
FNDA:10,_RNvXs1_NtCsbFF8whRY7sM_23pandora_learning_engine12world_modelsNtB5_18AdaptiveWorldModelNtNtCs74ZtNTl7RRg_12pandora_core11world_model10WorldModel7get_mdl
FNDA:3,_RNvXs_NtCsbFF8whRY7sM_23pandora_learning_engine12world_modelsNtB4_16SimpleWorldModelNtNtCs74ZtNTl7RRg_12pandora_core11world_model10WorldModel20get_prediction_error
FNDA:4,_RNvXs_NtCsbFF8whRY7sM_23pandora_learning_engine12world_modelsNtB4_16SimpleWorldModelNtNtCs74ZtNTl7RRg_12pandora_core11world_model10WorldModel7get_mdl
FNDA:0,_RNvMNtCscVwwENaI6ms_23pandora_learning_engine12world_modelsNtB2_16SimpleWorldModel3new
FNDA:0,_RNvMNtCscVwwENaI6ms_23pandora_learning_engine12world_modelsNtB2_16SimpleWorldModel6evolve
FNDA:0,_RNvMs0_NtCscVwwENaI6ms_23pandora_learning_engine12world_modelsNtB5_18AdaptiveWorldModel11spawn_child
FNDA:0,_RNvMs0_NtCscVwwENaI6ms_23pandora_learning_engine12world_modelsNtB5_18AdaptiveWorldModel3new
FNDA:0,_RNvMs0_NtCscVwwENaI6ms_23pandora_learning_engine12world_modelsNtB5_18AdaptiveWorldModel5adapt
FNDA:0,_RNvNtCscVwwENaI6ms_23pandora_learning_engine12world_models20test_learning_engine
FNDA:0,_RNvXs1_NtCscVwwENaI6ms_23pandora_learning_engine12world_modelsNtB5_18AdaptiveWorldModelNtNtCs74ZtNTl7RRg_12pandora_core11world_model10WorldModel20get_prediction_error
FNDA:0,_RNvXs1_NtCscVwwENaI6ms_23pandora_learning_engine12world_modelsNtB5_18AdaptiveWorldModelNtNtCs74ZtNTl7RRg_12pandora_core11world_model10WorldModel7get_mdl
FNDA:0,_RNvXs_NtCscVwwENaI6ms_23pandora_learning_engine12world_modelsNtB4_16SimpleWorldModelNtNtCs74ZtNTl7RRg_12pandora_core11world_model10WorldModel20get_prediction_error
FNDA:0,_RNvXs_NtCscVwwENaI6ms_23pandora_learning_engine12world_modelsNtB4_16SimpleWorldModelNtNtCs74ZtNTl7RRg_12pandora_core11world_model10WorldModel7get_mdl
FNF:10
FNH:10
DA:16,2
DA:17,2
DA:18,2
DA:19,2
DA:20,2
DA:21,2
DA:22,2
DA:23,2
DA:24,2
DA:28,1
DA:29,1
DA:30,1
DA:31,1
DA:35,4
DA:37,4
DA:38,4
DA:40,3
DA:42,3
DA:43,3
DA:44,3
DA:45,3
DA:59,6
DA:60,6
DA:61,6
DA:62,6
DA:63,6
DA:64,6
DA:65,6
DA:66,6
DA:67,6
DA:70,5
DA:72,5
DA:75,5
DA:76,3
DA:78,2
DA:81,5
DA:82,5
DA:83,5
DA:84,5
DA:87,5
DA:88,5
DA:89,5
DA:90,5
DA:92,5
DA:93,5
DA:97,10
DA:99,10
DA:100,10
DA:101,10
DA:103,5
DA:105,5
DA:106,5
DA:110,1
DA:111,1
DA:112,1
DA:113,1
DA:116,1
DA:119,1
DA:120,1
DA:126,1
DA:132,1
DA:135,1
DA:136,1
DA:138,1
DA:139,1
DA:140,1
DA:141,1
DA:142,1
DA:143,1
DA:145,1
DA:146,1
DA:147,1
DA:148,0
DA:149,0
DA:152,1
DA:153,1
DA:154,1
DA:160,6
DA:161,5
DA:162,5
DA:164,5
DA:165,5
DA:166,5
DA:168,5
DA:171,1
DA:172,1
DA:173,1
DA:174,1
BRF:0
BRH:0
LF:88
LH:86
end_of_record
SF:/home/ybao/B.1/B.1_COS/sdk/pandora_mcg/src/lib.rs
FN:26,_RNvMCsbIYmDbEotGV_11pandora_mcgNtB2_10RuleEngine3new
FN:51,_RNvMCsbIYmDbEotGV_11pandora_mcgNtB2_10RuleEngine8evaluate
FN:87,_RNvMs_CsbIYmDbEotGV_11pandora_mcgNtB4_21MetaCognitiveGovernor18monitor_and_decide
FN:77,_RNvMs_CsbIYmDbEotGV_11pandora_mcgNtB4_21MetaCognitiveGovernor3new
FN:26,_RNvMCsaWh5es4Kf2f_11pandora_mcgNtB2_10RuleEngine3new
FN:51,_RNvMCsaWh5es4Kf2f_11pandora_mcgNtB2_10RuleEngine8evaluate
FN:87,_RNvMs_CsaWh5es4Kf2f_11pandora_mcgNtB4_21MetaCognitiveGovernor18monitor_and_decide
FN:77,_RNvMs_CsaWh5es4Kf2f_11pandora_mcgNtB4_21MetaCognitiveGovernor3new
FNDA:0,_RNvMCsbIYmDbEotGV_11pandora_mcgNtB2_10RuleEngine3new
FNDA:0,_RNvMCsbIYmDbEotGV_11pandora_mcgNtB2_10RuleEngine8evaluate
FNDA:0,_RNvMs_CsbIYmDbEotGV_11pandora_mcgNtB4_21MetaCognitiveGovernor18monitor_and_decide
FNDA:0,_RNvMs_CsbIYmDbEotGV_11pandora_mcgNtB4_21MetaCognitiveGovernor3new
FNDA:1,_RNvMCsaWh5es4Kf2f_11pandora_mcgNtB2_10RuleEngine3new
FNDA:1,_RNvMCsaWh5es4Kf2f_11pandora_mcgNtB2_10RuleEngine8evaluate
FNDA:1,_RNvMs_CsaWh5es4Kf2f_11pandora_mcgNtB4_21MetaCognitiveGovernor18monitor_and_decide
FNDA:1,_RNvMs_CsaWh5es4Kf2f_11pandora_mcgNtB4_21MetaCognitiveGovernor3new
FNF:4
FNH:4
DA:26,1
DA:51,1
DA:52,1
DA:53,1
DA:54,1
DA:55,1
DA:56,1
DA:57,1
DA:60,1
DA:61,0
DA:69,0
DA:70,0
DA:71,1
DA:77,1
DA:87,1
DA:88,1
DA:89,1
DA:90,1
DA:91,1
DA:92,1
BRF:0
BRH:0
LF:20
LH:17
end_of_record
SF:/home/ybao/B.1/B.1_COS/sdk/pandora_orchestrator/src/lib.rs
FN:50,_RNCNCNvMs_Csgc29DxGvbju_20pandora_orchestratorNtB8_12Orchestrator15process_request00B8_
FN:44,_RNCNvMs_Csgc29DxGvbju_20pandora_orchestratorNtB6_12Orchestrator15process_request0B6_
FN:13,_RNvMCsgc29DxGvbju_20pandora_orchestratorNtB2_13SkillRegistry3new
FN:18,_RNvMCsgc29DxGvbju_20pandora_orchestratorNtB2_13SkillRegistry8register
FN:24,_RNvMCsgc29DxGvbju_20pandora_orchestratorNtB2_13SkillRegistry9get_skill
FN:40,_RNvMs_Csgc29DxGvbju_20pandora_orchestratorNtB4_12Orchestrator15process_request
FN:35,_RNvMs_Csgc29DxGvbju_20pandora_orchestratorNtB4_12Orchestrator3new
FNDA:0,_RNCNCNvMs_Csgc29DxGvbju_20pandora_orchestratorNtB8_12Orchestrator15process_request00B8_
FNDA:0,_RNCNvMs_Csgc29DxGvbju_20pandora_orchestratorNtB6_12Orchestrator15process_request0B6_
FNDA:0,_RNvMCsgc29DxGvbju_20pandora_orchestratorNtB2_13SkillRegistry3new
FNDA:0,_RNvMCsgc29DxGvbju_20pandora_orchestratorNtB2_13SkillRegistry8register
FNDA:0,_RNvMCsgc29DxGvbju_20pandora_orchestratorNtB2_13SkillRegistry9get_skill
FNDA:0,_RNvMs_Csgc29DxGvbju_20pandora_orchestratorNtB4_12Orchestrator15process_request
FNDA:0,_RNvMs_Csgc29DxGvbju_20pandora_orchestratorNtB4_12Orchestrator3new
FNF:7
FNH:0
DA:13,0
DA:14,0
DA:15,0
DA:18,0
DA:19,0
DA:20,0
DA:21,0
DA:24,0
DA:25,0
DA:26,0
DA:35,0
DA:36,0
DA:37,0
DA:40,0
DA:41,0
DA:42,0
DA:43,0
DA:44,0
DA:45,0
DA:47,0
DA:48,0
DA:49,0
DA:50,0
DA:52,0
DA:53,0
DA:54,0
DA:55,0
BRF:0
BRH:0
LF:29
LH:0
end_of_record
SF:/home/ybao/B.1/B.1_COS/sdk/pandora_sie/src/lib.rs
FN:49,_RNCNvMCsc1PQuzzInFP_11pandora_sieNtB4_21SelfImprovementEngine7execute0B4_
FN:42,_RNvMCsc1PQuzzInFP_11pandora_sieNtB2_21SelfImprovementEngine3new
FN:49,_RNvMCsc1PQuzzInFP_11pandora_sieNtB2_21SelfImprovementEngine7execute
FN:19,_RNvXs_Csc1PQuzzInFP_11pandora_sieNtB4_18RefinementStrategyNtB4_19ImprovementStrategy14propose_action
FN:17,_RNvXs_Csc1PQuzzInFP_11pandora_sieNtB4_18RefinementStrategyNtB4_19ImprovementStrategy4name
FN:49,_RNCNvMCs2kobsAptHZv_11pandora_sieNtB4_21SelfImprovementEngine7execute0CsoxmhnnUJuQ_19transcendental_loop
FN:42,_RNvMCs2kobsAptHZv_11pandora_sieNtB2_21SelfImprovementEngine3new
FN:49,_RNvMCs2kobsAptHZv_11pandora_sieNtB2_21SelfImprovementEngine7execute
FN:19,_RNvXs_Cs2kobsAptHZv_11pandora_sieNtB4_18RefinementStrategyNtB4_19ImprovementStrategy14propose_action
FN:17,_RNvXs_Cs2kobsAptHZv_11pandora_sieNtB4_18RefinementStrategyNtB4_19ImprovementStrategy4name
FNDA:0,_RNCNvMCsc1PQuzzInFP_11pandora_sieNtB4_21SelfImprovementEngine7execute0B4_
FNDA:0,_RNvMCsc1PQuzzInFP_11pandora_sieNtB2_21SelfImprovementEngine3new
FNDA:0,_RNvMCsc1PQuzzInFP_11pandora_sieNtB2_21SelfImprovementEngine7execute
FNDA:0,_RNvXs_Csc1PQuzzInFP_11pandora_sieNtB4_18RefinementStrategyNtB4_19ImprovementStrategy14propose_action
FNDA:0,_RNvXs_Csc1PQuzzInFP_11pandora_sieNtB4_18RefinementStrategyNtB4_19ImprovementStrategy4name
FNDA:1,_RNCNvMCs2kobsAptHZv_11pandora_sieNtB4_21SelfImprovementEngine7execute0CsoxmhnnUJuQ_19transcendental_loop
FNDA:1,_RNvMCs2kobsAptHZv_11pandora_sieNtB2_21SelfImprovementEngine3new
FNDA:1,_RNvMCs2kobsAptHZv_11pandora_sieNtB2_21SelfImprovementEngine7execute
FNDA:1,_RNvXs_Cs2kobsAptHZv_11pandora_sieNtB4_18RefinementStrategyNtB4_19ImprovementStrategy14propose_action
FNDA:1,_RNvXs_Cs2kobsAptHZv_11pandora_sieNtB4_18RefinementStrategyNtB4_19ImprovementStrategy4name
FNF:5
FNH:5
DA:17,1
DA:19,1
DA:20,1
DA:34,1
DA:42,1
DA:43,1
DA:44,1
DA:45,1
DA:46,1
DA:47,1
DA:49,1
DA:50,1
DA:51,1
DA:52,1
DA:53,0
DA:54,0
DA:57,1
DA:58,1
DA:59,1
DA:60,1
DA:61,1
DA:63,0
DA:65,1
BRF:0
BRH:0
LF:24
LH:21
end_of_record
SF:/home/ybao/B.1/B.1_COS/sdk/pandora_tools/src/agents/fep_seed.rs
FN:18,_RNvMNtNtCsghRy5fz0Jb0_13pandora_tools6agents8fep_seedNtB2_11FepSeedRust3new
FN:33,_RNvXs_NtNtCsghRy5fz0Jb0_13pandora_tools6agents8fep_seedNtB4_11FepSeedRustNtNtNtCs74ZtNTl7RRg_12pandora_core10interfaces8fep_cell7FepCell18get_internal_model
FN:53,_RNvXs_NtNtCsghRy5fz0Jb0_13pandora_tools6agents8fep_seedNtB4_11FepSeedRustNtNtNtCs74ZtNTl7RRg_12pandora_core10interfaces8fep_cell7FepCell3act
FN:37,_RNvXs_NtNtCsghRy5fz0Jb0_13pandora_tools6agents8fep_seedNtB4_11FepSeedRustNtNtNtCs74ZtNTl7RRg_12pandora_core10interfaces8fep_cell7FepCell8perceive
FN:18,_RNvMNtNtCs1fVwMUHTztI_13pandora_tools6agents8fep_seedNtB2_11FepSeedRust3new
FN:33,_RNvXs_NtNtCs1fVwMUHTztI_13pandora_tools6agents8fep_seedNtB4_11FepSeedRustNtNtNtCs74ZtNTl7RRg_12pandora_core10interfaces8fep_cell7FepCell18get_internal_model
FN:53,_RNvXs_NtNtCs1fVwMUHTztI_13pandora_tools6agents8fep_seedNtB4_11FepSeedRustNtNtNtCs74ZtNTl7RRg_12pandora_core10interfaces8fep_cell7FepCell3act
FN:37,_RNvXs_NtNtCs1fVwMUHTztI_13pandora_tools6agents8fep_seedNtB4_11FepSeedRustNtNtNtCs74ZtNTl7RRg_12pandora_core10interfaces8fep_cell7FepCell8perceive
FNDA:1,_RNvMNtNtCsghRy5fz0Jb0_13pandora_tools6agents8fep_seedNtB2_11FepSeedRust3new
FNDA:0,_RNvXs_NtNtCsghRy5fz0Jb0_13pandora_tools6agents8fep_seedNtB4_11FepSeedRustNtNtNtCs74ZtNTl7RRg_12pandora_core10interfaces8fep_cell7FepCell18get_internal_model
FNDA:2,_RNvXs_NtNtCsghRy5fz0Jb0_13pandora_tools6agents8fep_seedNtB4_11FepSeedRustNtNtNtCs74ZtNTl7RRg_12pandora_core10interfaces8fep_cell7FepCell3act
FNDA:2,_RNvXs_NtNtCsghRy5fz0Jb0_13pandora_tools6agents8fep_seedNtB4_11FepSeedRustNtNtNtCs74ZtNTl7RRg_12pandora_core10interfaces8fep_cell7FepCell8perceive
FNDA:0,_RNvMNtNtCs1fVwMUHTztI_13pandora_tools6agents8fep_seedNtB2_11FepSeedRust3new
FNDA:0,_RNvXs_NtNtCs1fVwMUHTztI_13pandora_tools6agents8fep_seedNtB4_11FepSeedRustNtNtNtCs74ZtNTl7RRg_12pandora_core10interfaces8fep_cell7FepCell18get_internal_model
FNDA:0,_RNvXs_NtNtCs1fVwMUHTztI_13pandora_tools6agents8fep_seedNtB4_11FepSeedRustNtNtNtCs74ZtNTl7RRg_12pandora_core10interfaces8fep_cell7FepCell3act
FNDA:0,_RNvXs_NtNtCs1fVwMUHTztI_13pandora_tools6agents8fep_seedNtB4_11FepSeedRustNtNtNtCs74ZtNTl7RRg_12pandora_core10interfaces8fep_cell7FepCell8perceive
FNF:4
FNH:3
DA:18,1
DA:19,1
DA:21,1
DA:22,1
DA:23,1
DA:24,1
DA:33,0
DA:34,0
DA:35,0
DA:37,2
DA:51,2
DA:53,2
DA:61,2
BRF:0
BRH:0
LF:13
LH:10
end_of_record
SF:/home/ybao/B.1/B.1_COS/sdk/pandora_tools/src/skills/analogy_reasoning_skill.rs
FN:50,_RNCNCNvXNtNtCsghRy5fz0Jb0_13pandora_tools6skills23analogy_reasoning_skillNtB6_21AnalogyReasoningSkillNtNtNtCs74ZtNTl7RRg_12pandora_core10interfaces6skills11SkillModule7execute00Ba_
FN:52,_RNCNCNvXNtNtCsghRy5fz0Jb0_13pandora_tools6skills23analogy_reasoning_skillNtB6_21AnalogyReasoningSkillNtNtNtCs74ZtNTl7RRg_12pandora_core10interfaces6skills11SkillModule7execute0s0_0Ba_
FN:53,_RNCNCNvXNtNtCsghRy5fz0Jb0_13pandora_tools6skills23analogy_reasoning_skillNtB6_21AnalogyReasoningSkillNtNtNtCs74ZtNTl7RRg_12pandora_core10interfaces6skills11SkillModule7execute0s1_0Ba_
FN:58,_RNCNCNvXNtNtCsghRy5fz0Jb0_13pandora_tools6skills23analogy_reasoning_skillNtB6_21AnalogyReasoningSkillNtNtNtCs74ZtNTl7RRg_12pandora_core10interfaces6skills11SkillModule7execute0s2_0Ba_
FN:51,_RNCNCNvXNtNtCsghRy5fz0Jb0_13pandora_tools6skills23analogy_reasoning_skillNtB6_21AnalogyReasoningSkillNtNtNtCs74ZtNTl7RRg_12pandora_core10interfaces6skills11SkillModule7execute0s_0Ba_
FN:40,_RNvXNtNtCs1fVwMUHTztI_13pandora_tools6skills23analogy_reasoning_skillNtB2_21AnalogyReasoningSkillNtNtNtCs74ZtNTl7RRg_12pandora_core10interfaces6skills11SkillModule10descriptor
FN:49,_RNvXNtNtCs1fVwMUHTztI_13pandora_tools6skills23analogy_reasoning_skillNtB2_21AnalogyReasoningSkillNtNtNtCs74ZtNTl7RRg_12pandora_core10interfaces6skills11SkillModule7execute
FN:7,_RNCNvNtNtNtCs1fVwMUHTztI_13pandora_tools6skills23analogy_reasoning_skill5testss_18test_valid_analogy0B9_
FN:20,_RNCNvNtNtNtCs1fVwMUHTztI_13pandora_tools6skills23analogy_reasoning_skill5testss_23test_missing_candidates0B9_
FN:7,_RNvNtNtNtCs1fVwMUHTztI_13pandora_tools6skills23analogy_reasoning_skill5testss_18test_valid_analogy
FN:20,_RNvNtNtNtCs1fVwMUHTztI_13pandora_tools6skills23analogy_reasoning_skill5testss_23test_missing_candidates
FN:50,_RNCNCNvXNtNtCs1fVwMUHTztI_13pandora_tools6skills23analogy_reasoning_skillNtB6_21AnalogyReasoningSkillNtNtNtCs74ZtNTl7RRg_12pandora_core10interfaces6skills11SkillModule7execute00Ba_
FN:52,_RNCNCNvXNtNtCs1fVwMUHTztI_13pandora_tools6skills23analogy_reasoning_skillNtB6_21AnalogyReasoningSkillNtNtNtCs74ZtNTl7RRg_12pandora_core10interfaces6skills11SkillModule7execute0s0_0Ba_
FN:53,_RNCNCNvXNtNtCs1fVwMUHTztI_13pandora_tools6skills23analogy_reasoning_skillNtB6_21AnalogyReasoningSkillNtNtNtCs74ZtNTl7RRg_12pandora_core10interfaces6skills11SkillModule7execute0s1_0Ba_
FN:58,_RNCNCNvXNtNtCs1fVwMUHTztI_13pandora_tools6skills23analogy_reasoning_skillNtB6_21AnalogyReasoningSkillNtNtNtCs74ZtNTl7RRg_12pandora_core10interfaces6skills11SkillModule7execute0s2_0Ba_
FN:51,_RNCNCNvXNtNtCs1fVwMUHTztI_13pandora_tools6skills23analogy_reasoning_skillNtB6_21AnalogyReasoningSkillNtNtNtCs74ZtNTl7RRg_12pandora_core10interfaces6skills11SkillModule7execute0s_0Ba_
FNDA:0,_RNCNCNvXNtNtCsghRy5fz0Jb0_13pandora_tools6skills23analogy_reasoning_skillNtB6_21AnalogyReasoningSkillNtNtNtCs74ZtNTl7RRg_12pandora_core10interfaces6skills11SkillModule7execute00Ba_
FNDA:0,_RNCNCNvXNtNtCsghRy5fz0Jb0_13pandora_tools6skills23analogy_reasoning_skillNtB6_21AnalogyReasoningSkillNtNtNtCs74ZtNTl7RRg_12pandora_core10interfaces6skills11SkillModule7execute0s0_0Ba_
FNDA:0,_RNCNCNvXNtNtCsghRy5fz0Jb0_13pandora_tools6skills23analogy_reasoning_skillNtB6_21AnalogyReasoningSkillNtNtNtCs74ZtNTl7RRg_12pandora_core10interfaces6skills11SkillModule7execute0s1_0Ba_
FNDA:0,_RNCNCNvXNtNtCsghRy5fz0Jb0_13pandora_tools6skills23analogy_reasoning_skillNtB6_21AnalogyReasoningSkillNtNtNtCs74ZtNTl7RRg_12pandora_core10interfaces6skills11SkillModule7execute0s2_0Ba_
FNDA:0,_RNCNCNvXNtNtCsghRy5fz0Jb0_13pandora_tools6skills23analogy_reasoning_skillNtB6_21AnalogyReasoningSkillNtNtNtCs74ZtNTl7RRg_12pandora_core10interfaces6skills11SkillModule7execute0s_0Ba_
FNDA:0,_RNvXNtNtCs1fVwMUHTztI_13pandora_tools6skills23analogy_reasoning_skillNtB2_21AnalogyReasoningSkillNtNtNtCs74ZtNTl7RRg_12pandora_core10interfaces6skills11SkillModule10descriptor
FNDA:2,_RNvXNtNtCs1fVwMUHTztI_13pandora_tools6skills23analogy_reasoning_skillNtB2_21AnalogyReasoningSkillNtNtNtCs74ZtNTl7RRg_12pandora_core10interfaces6skills11SkillModule7execute
FNDA:1,_RNCNvNtNtNtCs1fVwMUHTztI_13pandora_tools6skills23analogy_reasoning_skill5testss_18test_valid_analogy0B9_
FNDA:1,_RNCNvNtNtNtCs1fVwMUHTztI_13pandora_tools6skills23analogy_reasoning_skill5testss_23test_missing_candidates0B9_
FNDA:1,_RNvNtNtNtCs1fVwMUHTztI_13pandora_tools6skills23analogy_reasoning_skill5testss_18test_valid_analogy
FNDA:1,_RNvNtNtNtCs1fVwMUHTztI_13pandora_tools6skills23analogy_reasoning_skill5testss_23test_missing_candidates
FNDA:2,_RNCNCNvXNtNtCs1fVwMUHTztI_13pandora_tools6skills23analogy_reasoning_skillNtB6_21AnalogyReasoningSkillNtNtNtCs74ZtNTl7RRg_12pandora_core10interfaces6skills11SkillModule7execute00Ba_
FNDA:2,_RNCNCNvXNtNtCs1fVwMUHTztI_13pandora_tools6skills23analogy_reasoning_skillNtB6_21AnalogyReasoningSkillNtNtNtCs74ZtNTl7RRg_12pandora_core10interfaces6skills11SkillModule7execute0s0_0Ba_
FNDA:1,_RNCNCNvXNtNtCs1fVwMUHTztI_13pandora_tools6skills23analogy_reasoning_skillNtB6_21AnalogyReasoningSkillNtNtNtCs74ZtNTl7RRg_12pandora_core10interfaces6skills11SkillModule7execute0s1_0Ba_
FNDA:3,_RNCNCNvXNtNtCs1fVwMUHTztI_13pandora_tools6skills23analogy_reasoning_skillNtB6_21AnalogyReasoningSkillNtNtNtCs74ZtNTl7RRg_12pandora_core10interfaces6skills11SkillModule7execute0s2_0Ba_
FNDA:2,_RNCNCNvXNtNtCs1fVwMUHTztI_13pandora_tools6skills23analogy_reasoning_skillNtB6_21AnalogyReasoningSkillNtNtNtCs74ZtNTl7RRg_12pandora_core10interfaces6skills11SkillModule7execute0s_0Ba_
FNF:11
FNH:10
DA:7,1
DA:8,1
DA:9,1
DA:10,1
DA:11,1
DA:12,1
DA:13,1
DA:15,1
DA:16,1
DA:17,1
DA:20,1
DA:21,1
DA:22,1
DA:23,1
DA:24,1
DA:25,1
DA:27,1
DA:28,1
DA:40,0
DA:41,0
DA:42,0
DA:43,0
DA:44,0
DA:45,0
DA:46,0
DA:47,0
DA:49,2
DA:50,2
DA:51,2
DA:52,2
DA:53,1
DA:58,3
DA:71,2
BRF:0
BRH:0
LF:37
LH:29
end_of_record
SF:/home/ybao/B.1/B.1_COS/sdk/pandora_tools/src/skills/arithmetic_skill.rs
FN:48,_RNCNCNvXNtNtCsghRy5fz0Jb0_13pandora_tools6skills16arithmetic_skillNtB6_15ArithmeticSkillNtNtNtCs74ZtNTl7RRg_12pandora_core10interfaces6skills11SkillModule7execute00Ba_
FN:38,_RNvXNtNtCs1fVwMUHTztI_13pandora_tools6skills16arithmetic_skillNtB2_15ArithmeticSkillNtNtNtCs74ZtNTl7RRg_12pandora_core10interfaces6skills11SkillModule10descriptor
FN:48,_RNCNCNvXNtNtCs1fVwMUHTztI_13pandora_tools6skills16arithmetic_skillNtB6_15ArithmeticSkillNtNtNtCs74ZtNTl7RRg_12pandora_core10interfaces6skills11SkillModule7execute00Ba_
FN:7,_RNvNtNtNtCs1fVwMUHTztI_13pandora_tools6skills16arithmetic_skill5testss_20test_simple_addition
FN:21,_RNvNtNtNtCs1fVwMUHTztI_13pandora_tools6skills16arithmetic_skill5testss_23test_invalid_expression
FN:14,_RNvNtNtNtCs1fVwMUHTztI_13pandora_tools6skills16arithmetic_skill5testss_24test_operator_precedence
FN:47,_RNvXNtNtCs1fVwMUHTztI_13pandora_tools6skills16arithmetic_skillNtB2_15ArithmeticSkillNtNtNtCs74ZtNTl7RRg_12pandora_core10interfaces6skills11SkillModule7execute
FN:7,_RNCNvNtNtNtCs1fVwMUHTztI_13pandora_tools6skills16arithmetic_skill5testss_20test_simple_addition0B9_
FN:21,_RNCNvNtNtNtCs1fVwMUHTztI_13pandora_tools6skills16arithmetic_skill5testss_23test_invalid_expression0B9_
FN:14,_RNCNvNtNtNtCs1fVwMUHTztI_13pandora_tools6skills16arithmetic_skill5testss_24test_operator_precedence0B9_
FNDA:0,_RNCNCNvXNtNtCsghRy5fz0Jb0_13pandora_tools6skills16arithmetic_skillNtB6_15ArithmeticSkillNtNtNtCs74ZtNTl7RRg_12pandora_core10interfaces6skills11SkillModule7execute00Ba_
FNDA:0,_RNvXNtNtCs1fVwMUHTztI_13pandora_tools6skills16arithmetic_skillNtB2_15ArithmeticSkillNtNtNtCs74ZtNTl7RRg_12pandora_core10interfaces6skills11SkillModule10descriptor
FNDA:3,_RNCNCNvXNtNtCs1fVwMUHTztI_13pandora_tools6skills16arithmetic_skillNtB6_15ArithmeticSkillNtNtNtCs74ZtNTl7RRg_12pandora_core10interfaces6skills11SkillModule7execute00Ba_
FNDA:1,_RNvNtNtNtCs1fVwMUHTztI_13pandora_tools6skills16arithmetic_skill5testss_20test_simple_addition
FNDA:1,_RNvNtNtNtCs1fVwMUHTztI_13pandora_tools6skills16arithmetic_skill5testss_23test_invalid_expression
FNDA:1,_RNvNtNtNtCs1fVwMUHTztI_13pandora_tools6skills16arithmetic_skill5testss_24test_operator_precedence
FNDA:3,_RNvXNtNtCs1fVwMUHTztI_13pandora_tools6skills16arithmetic_skillNtB2_15ArithmeticSkillNtNtNtCs74ZtNTl7RRg_12pandora_core10interfaces6skills11SkillModule7execute
FNDA:1,_RNCNvNtNtNtCs1fVwMUHTztI_13pandora_tools6skills16arithmetic_skill5testss_20test_simple_addition0B9_
FNDA:1,_RNCNvNtNtNtCs1fVwMUHTztI_13pandora_tools6skills16arithmetic_skill5testss_23test_invalid_expression0B9_
FNDA:1,_RNCNvNtNtNtCs1fVwMUHTztI_13pandora_tools6skills16arithmetic_skill5testss_24test_operator_precedence0B9_
FNF:9
FNH:8
DA:7,1
DA:8,1
DA:9,1
DA:10,1
DA:11,1
DA:14,1
DA:15,1
DA:16,1
DA:17,1
DA:18,1
DA:21,1
DA:22,1
DA:23,1
DA:24,1
DA:25,1
DA:38,0
DA:39,0
DA:40,0
DA:41,0
DA:42,0
DA:43,0
DA:44,0
DA:45,0
DA:47,3
DA:48,3
DA:61,3
BRF:0
BRH:0
LF:32
LH:24
end_of_record
SF:/home/ybao/B.1/B.1_COS/sdk/pandora_tools/src/skills/logical_reasoning_skill.rs
FN:72,_RNCNCNvXs_NtNtCsghRy5fz0Jb0_13pandora_tools6skills23logical_reasoning_skillNtB8_21LogicalReasoningSkillNtNtNtCs74ZtNTl7RRg_12pandora_core10interfaces6skills11SkillModule7execute00Bc_
FN:82,_RNCNvMNtNtCsghRy5fz0Jb0_13pandora_tools6skills23logical_reasoning_skillNtB4_21LogicalReasoningSkill13evaluate_node0B8_
FN:84,_RNCNvMNtNtCsghRy5fz0Jb0_13pandora_tools6skills23logical_reasoning_skillNtB4_21LogicalReasoningSkill13evaluate_nodes0_0B8_
FN:84,_RNCNvMNtNtCsghRy5fz0Jb0_13pandora_tools6skills23logical_reasoning_skillNtB4_21LogicalReasoningSkill13evaluate_nodes1_0B8_
FN:86,_RNCNvMNtNtCsghRy5fz0Jb0_13pandora_tools6skills23logical_reasoning_skillNtB4_21LogicalReasoningSkill13evaluate_nodes2_0B8_
FN:86,_RNCNvMNtNtCsghRy5fz0Jb0_13pandora_tools6skills23logical_reasoning_skillNtB4_21LogicalReasoningSkill13evaluate_nodes3_0B8_
FN:87,_RNCNvMNtNtCsghRy5fz0Jb0_13pandora_tools6skills23logical_reasoning_skillNtB4_21LogicalReasoningSkill13evaluate_nodes4_0B8_
FN:87,_RNCNvMNtNtCsghRy5fz0Jb0_13pandora_tools6skills23logical_reasoning_skillNtB4_21LogicalReasoningSkill13evaluate_nodes5_0B8_
FN:90,_RNCNvMNtNtCsghRy5fz0Jb0_13pandora_tools6skills23logical_reasoning_skillNtB4_21LogicalReasoningSkill13evaluate_nodes6_0B8_
FN:94,_RNCNvMNtNtCsghRy5fz0Jb0_13pandora_tools6skills23logical_reasoning_skillNtB4_21LogicalReasoningSkill13evaluate_nodes7_0B8_
FN:94,_RNCNvMNtNtCsghRy5fz0Jb0_13pandora_tools6skills23logical_reasoning_skillNtB4_21LogicalReasoningSkill13evaluate_nodes8_0B8_
FN:103,_RNCNvMNtNtCsghRy5fz0Jb0_13pandora_tools6skills23logical_reasoning_skillNtB4_21LogicalReasoningSkill13evaluate_nodes9_0B8_
FN:82,_RNCNvMNtNtCsghRy5fz0Jb0_13pandora_tools6skills23logical_reasoning_skillNtB4_21LogicalReasoningSkill13evaluate_nodes_0B8_
FN:103,_RNCNvMNtNtCsghRy5fz0Jb0_13pandora_tools6skills23logical_reasoning_skillNtB4_21LogicalReasoningSkill13evaluate_nodesa_0B8_
FN:81,_RNvMNtNtCsghRy5fz0Jb0_13pandora_tools6skills23logical_reasoning_skillNtB2_21LogicalReasoningSkill13evaluate_node
FN:61,_RNvXs_NtNtCsghRy5fz0Jb0_13pandora_tools6skills23logical_reasoning_skillNtB4_21LogicalReasoningSkillNtNtNtCs74ZtNTl7RRg_12pandora_core10interfaces6skills11SkillModule10descriptor
FN:70,_RNvXs_NtNtCsghRy5fz0Jb0_13pandora_tools6skills23logical_reasoning_skillNtB4_21LogicalReasoningSkillNtNtNtCs74ZtNTl7RRg_12pandora_core10interfaces6skills11SkillModule7execute
FN:61,_RNvXs_NtNtCs1fVwMUHTztI_13pandora_tools6skills23logical_reasoning_skillNtB4_21LogicalReasoningSkillNtNtNtCs74ZtNTl7RRg_12pandora_core10interfaces6skills11SkillModule10descriptor
FN:37,_RNCNvNtNtNtCs1fVwMUHTztI_13pandora_tools6skills23logical_reasoning_skill5testss_19test_simple_or_true0B9_
FN:7,_RNCNvNtNtNtCs1fVwMUHTztI_13pandora_tools6skills23logical_reasoning_skill5testss_20test_simple_and_true0B9_
FN:22,_RNCNvNtNtNtCs1fVwMUHTztI_13pandora_tools6skills23logical_reasoning_skill5testss_21test_simple_and_false0B9_
FN:81,_RNvMNtNtCs1fVwMUHTztI_13pandora_tools6skills23logical_reasoning_skillNtB2_21LogicalReasoningSkill13evaluate_node
FN:70,_RNvXs_NtNtCs1fVwMUHTztI_13pandora_tools6skills23logical_reasoning_skillNtB4_21LogicalReasoningSkillNtNtNtCs74ZtNTl7RRg_12pandora_core10interfaces6skills11SkillModule7execute
FN:72,_RNCNCNvXs_NtNtCs1fVwMUHTztI_13pandora_tools6skills23logical_reasoning_skillNtB8_21LogicalReasoningSkillNtNtNtCs74ZtNTl7RRg_12pandora_core10interfaces6skills11SkillModule7execute00Bc_
FN:82,_RNCNvMNtNtCs1fVwMUHTztI_13pandora_tools6skills23logical_reasoning_skillNtB4_21LogicalReasoningSkill13evaluate_node0B8_
FN:84,_RNCNvMNtNtCs1fVwMUHTztI_13pandora_tools6skills23logical_reasoning_skillNtB4_21LogicalReasoningSkill13evaluate_nodes0_0B8_
FN:84,_RNCNvMNtNtCs1fVwMUHTztI_13pandora_tools6skills23logical_reasoning_skillNtB4_21LogicalReasoningSkill13evaluate_nodes1_0B8_
FN:86,_RNCNvMNtNtCs1fVwMUHTztI_13pandora_tools6skills23logical_reasoning_skillNtB4_21LogicalReasoningSkill13evaluate_nodes2_0B8_
FN:86,_RNCNvMNtNtCs1fVwMUHTztI_13pandora_tools6skills23logical_reasoning_skillNtB4_21LogicalReasoningSkill13evaluate_nodes3_0B8_
FN:87,_RNCNvMNtNtCs1fVwMUHTztI_13pandora_tools6skills23logical_reasoning_skillNtB4_21LogicalReasoningSkill13evaluate_nodes4_0B8_
FN:87,_RNCNvMNtNtCs1fVwMUHTztI_13pandora_tools6skills23logical_reasoning_skillNtB4_21LogicalReasoningSkill13evaluate_nodes5_0B8_
FN:90,_RNCNvMNtNtCs1fVwMUHTztI_13pandora_tools6skills23logical_reasoning_skillNtB4_21LogicalReasoningSkill13evaluate_nodes6_0B8_
FN:94,_RNCNvMNtNtCs1fVwMUHTztI_13pandora_tools6skills23logical_reasoning_skillNtB4_21LogicalReasoningSkill13evaluate_nodes7_0B8_
FN:94,_RNCNvMNtNtCs1fVwMUHTztI_13pandora_tools6skills23logical_reasoning_skillNtB4_21LogicalReasoningSkill13evaluate_nodes8_0B8_
FN:103,_RNCNvMNtNtCs1fVwMUHTztI_13pandora_tools6skills23logical_reasoning_skillNtB4_21LogicalReasoningSkill13evaluate_nodes9_0B8_
FN:82,_RNCNvMNtNtCs1fVwMUHTztI_13pandora_tools6skills23logical_reasoning_skillNtB4_21LogicalReasoningSkill13evaluate_nodes_0B8_
FN:103,_RNCNvMNtNtCs1fVwMUHTztI_13pandora_tools6skills23logical_reasoning_skillNtB4_21LogicalReasoningSkill13evaluate_nodesa_0B8_
FN:37,_RNvNtNtNtCs1fVwMUHTztI_13pandora_tools6skills23logical_reasoning_skill5testss_19test_simple_or_true
FN:7,_RNvNtNtNtCs1fVwMUHTztI_13pandora_tools6skills23logical_reasoning_skill5testss_20test_simple_and_true
FN:22,_RNvNtNtNtCs1fVwMUHTztI_13pandora_tools6skills23logical_reasoning_skill5testss_21test_simple_and_false
FNDA:0,_RNCNCNvXs_NtNtCsghRy5fz0Jb0_13pandora_tools6skills23logical_reasoning_skillNtB8_21LogicalReasoningSkillNtNtNtCs74ZtNTl7RRg_12pandora_core10interfaces6skills11SkillModule7execute00Bc_
FNDA:0,_RNCNvMNtNtCsghRy5fz0Jb0_13pandora_tools6skills23logical_reasoning_skillNtB4_21LogicalReasoningSkill13evaluate_node0B8_
FNDA:0,_RNCNvMNtNtCsghRy5fz0Jb0_13pandora_tools6skills23logical_reasoning_skillNtB4_21LogicalReasoningSkill13evaluate_nodes0_0B8_
FNDA:0,_RNCNvMNtNtCsghRy5fz0Jb0_13pandora_tools6skills23logical_reasoning_skillNtB4_21LogicalReasoningSkill13evaluate_nodes1_0B8_
FNDA:0,_RNCNvMNtNtCsghRy5fz0Jb0_13pandora_tools6skills23logical_reasoning_skillNtB4_21LogicalReasoningSkill13evaluate_nodes2_0B8_
FNDA:0,_RNCNvMNtNtCsghRy5fz0Jb0_13pandora_tools6skills23logical_reasoning_skillNtB4_21LogicalReasoningSkill13evaluate_nodes3_0B8_
FNDA:0,_RNCNvMNtNtCsghRy5fz0Jb0_13pandora_tools6skills23logical_reasoning_skillNtB4_21LogicalReasoningSkill13evaluate_nodes4_0B8_
FNDA:0,_RNCNvMNtNtCsghRy5fz0Jb0_13pandora_tools6skills23logical_reasoning_skillNtB4_21LogicalReasoningSkill13evaluate_nodes5_0B8_
FNDA:0,_RNCNvMNtNtCsghRy5fz0Jb0_13pandora_tools6skills23logical_reasoning_skillNtB4_21LogicalReasoningSkill13evaluate_nodes6_0B8_
FNDA:0,_RNCNvMNtNtCsghRy5fz0Jb0_13pandora_tools6skills23logical_reasoning_skillNtB4_21LogicalReasoningSkill13evaluate_nodes7_0B8_
FNDA:0,_RNCNvMNtNtCsghRy5fz0Jb0_13pandora_tools6skills23logical_reasoning_skillNtB4_21LogicalReasoningSkill13evaluate_nodes8_0B8_
FNDA:0,_RNCNvMNtNtCsghRy5fz0Jb0_13pandora_tools6skills23logical_reasoning_skillNtB4_21LogicalReasoningSkill13evaluate_nodes9_0B8_
FNDA:0,_RNCNvMNtNtCsghRy5fz0Jb0_13pandora_tools6skills23logical_reasoning_skillNtB4_21LogicalReasoningSkill13evaluate_nodes_0B8_
FNDA:0,_RNCNvMNtNtCsghRy5fz0Jb0_13pandora_tools6skills23logical_reasoning_skillNtB4_21LogicalReasoningSkill13evaluate_nodesa_0B8_
FNDA:0,_RNvMNtNtCsghRy5fz0Jb0_13pandora_tools6skills23logical_reasoning_skillNtB2_21LogicalReasoningSkill13evaluate_node
FNDA:0,_RNvXs_NtNtCsghRy5fz0Jb0_13pandora_tools6skills23logical_reasoning_skillNtB4_21LogicalReasoningSkillNtNtNtCs74ZtNTl7RRg_12pandora_core10interfaces6skills11SkillModule10descriptor
FNDA:0,_RNvXs_NtNtCsghRy5fz0Jb0_13pandora_tools6skills23logical_reasoning_skillNtB4_21LogicalReasoningSkillNtNtNtCs74ZtNTl7RRg_12pandora_core10interfaces6skills11SkillModule7execute
FNDA:0,_RNvXs_NtNtCs1fVwMUHTztI_13pandora_tools6skills23logical_reasoning_skillNtB4_21LogicalReasoningSkillNtNtNtCs74ZtNTl7RRg_12pandora_core10interfaces6skills11SkillModule10descriptor
FNDA:1,_RNCNvNtNtNtCs1fVwMUHTztI_13pandora_tools6skills23logical_reasoning_skill5testss_19test_simple_or_true0B9_
FNDA:1,_RNCNvNtNtNtCs1fVwMUHTztI_13pandora_tools6skills23logical_reasoning_skill5testss_20test_simple_and_true0B9_
FNDA:1,_RNCNvNtNtNtCs1fVwMUHTztI_13pandora_tools6skills23logical_reasoning_skill5testss_21test_simple_and_false0B9_
FNDA:8,_RNvMNtNtCs1fVwMUHTztI_13pandora_tools6skills23logical_reasoning_skillNtB2_21LogicalReasoningSkill13evaluate_node
FNDA:3,_RNvXs_NtNtCs1fVwMUHTztI_13pandora_tools6skills23logical_reasoning_skillNtB4_21LogicalReasoningSkillNtNtNtCs74ZtNTl7RRg_12pandora_core10interfaces6skills11SkillModule7execute
FNDA:3,_RNCNCNvXs_NtNtCs1fVwMUHTztI_13pandora_tools6skills23logical_reasoning_skillNtB8_21LogicalReasoningSkillNtNtNtCs74ZtNTl7RRg_12pandora_core10interfaces6skills11SkillModule7execute00Bc_
FNDA:8,_RNCNvMNtNtCs1fVwMUHTztI_13pandora_tools6skills23logical_reasoning_skillNtB4_21LogicalReasoningSkill13evaluate_node0B8_
FNDA:2,_RNCNvMNtNtCs1fVwMUHTztI_13pandora_tools6skills23logical_reasoning_skillNtB4_21LogicalReasoningSkill13evaluate_nodes0_0B8_
FNDA:0,_RNCNvMNtNtCs1fVwMUHTztI_13pandora_tools6skills23logical_reasoning_skillNtB4_21LogicalReasoningSkill13evaluate_nodes1_0B8_
FNDA:3,_RNCNvMNtNtCs1fVwMUHTztI_13pandora_tools6skills23logical_reasoning_skillNtB4_21LogicalReasoningSkill13evaluate_nodes2_0B8_
FNDA:0,_RNCNvMNtNtCs1fVwMUHTztI_13pandora_tools6skills23logical_reasoning_skillNtB4_21LogicalReasoningSkill13evaluate_nodes3_0B8_
FNDA:3,_RNCNvMNtNtCs1fVwMUHTztI_13pandora_tools6skills23logical_reasoning_skillNtB4_21LogicalReasoningSkill13evaluate_nodes4_0B8_
FNDA:0,_RNCNvMNtNtCs1fVwMUHTztI_13pandora_tools6skills23logical_reasoning_skillNtB4_21LogicalReasoningSkill13evaluate_nodes5_0B8_
FNDA:0,_RNCNvMNtNtCs1fVwMUHTztI_13pandora_tools6skills23logical_reasoning_skillNtB4_21LogicalReasoningSkill13evaluate_nodes6_0B8_
FNDA:2,_RNCNvMNtNtCs1fVwMUHTztI_13pandora_tools6skills23logical_reasoning_skillNtB4_21LogicalReasoningSkill13evaluate_nodes7_0B8_
FNDA:0,_RNCNvMNtNtCs1fVwMUHTztI_13pandora_tools6skills23logical_reasoning_skillNtB4_21LogicalReasoningSkill13evaluate_nodes8_0B8_
FNDA:1,_RNCNvMNtNtCs1fVwMUHTztI_13pandora_tools6skills23logical_reasoning_skillNtB4_21LogicalReasoningSkill13evaluate_nodes9_0B8_
FNDA:0,_RNCNvMNtNtCs1fVwMUHTztI_13pandora_tools6skills23logical_reasoning_skillNtB4_21LogicalReasoningSkill13evaluate_nodes_0B8_
FNDA:0,_RNCNvMNtNtCs1fVwMUHTztI_13pandora_tools6skills23logical_reasoning_skillNtB4_21LogicalReasoningSkill13evaluate_nodesa_0B8_
FNDA:1,_RNvNtNtNtCs1fVwMUHTztI_13pandora_tools6skills23logical_reasoning_skill5testss_19test_simple_or_true
FNDA:1,_RNvNtNtNtCs1fVwMUHTztI_13pandora_tools6skills23logical_reasoning_skill5testss_20test_simple_and_true
FNDA:1,_RNvNtNtNtCs1fVwMUHTztI_13pandora_tools6skills23logical_reasoning_skill5testss_21test_simple_and_false
FNF:23
FNH:15
DA:7,1
DA:8,1
DA:9,1
DA:10,1
DA:11,1
DA:12,1
DA:13,1
DA:14,1
DA:17,1
DA:18,1
DA:19,1
DA:22,1
DA:23,1
DA:24,1
DA:25,1
DA:26,1
DA:27,1
DA:28,1
DA:29,1
DA:32,1
DA:33,1
DA:34,1
DA:37,1
DA:38,1
DA:39,1
DA:40,1
DA:41,1
DA:42,1
DA:43,1
DA:44,1
DA:47,1
DA:48,1
DA:49,1
DA:61,0
DA:62,0
DA:63,0
DA:64,0
DA:65,0
DA:66,0
DA:67,0
DA:68,0
DA:70,3
DA:72,3
DA:77,3
DA:81,8
DA:82,8
DA:83,8
DA:84,8
DA:85,6
DA:86,3
DA:87,3
DA:89,3
DA:90,0
DA:91,0
DA:93,3
DA:94,2
DA:95,4
DA:96,3
DA:97,1
DA:98,2
DA:100,1
DA:102,1
DA:103,1
DA:104,2
DA:105,2
DA:106,1
DA:107,1
DA:109,0
DA:111,0
DA:113,8
BRF:0
BRH:0
LF:89
LH:70
end_of_record
SF:/home/ybao/B.1/B.1_COS/sdk/pandora_tools/src/skills/pattern_matching_skill.rs
FN:45,_RNCNCNvXNtNtCsghRy5fz0Jb0_13pandora_tools6skills22pattern_matching_skillNtB6_20PatternMatchingSkillNtNtNtCs74ZtNTl7RRg_12pandora_core10interfaces6skills11SkillModule7execute00Ba_
FN:59,_RNCNCNvXNtNtCsghRy5fz0Jb0_13pandora_tools6skills22pattern_matching_skillNtB6_20PatternMatchingSkillNtNtNtCs74ZtNTl7RRg_12pandora_core10interfaces6skills11SkillModule7execute0s0_0Ba_
FN:64,_RNCNCNvXNtNtCsghRy5fz0Jb0_13pandora_tools6skills22pattern_matching_skillNtB6_20PatternMatchingSkillNtNtNtCs74ZtNTl7RRg_12pandora_core10interfaces6skills11SkillModule7execute0s1_0Ba_
FN:65,_RNCNCNvXNtNtCsghRy5fz0Jb0_13pandora_tools6skills22pattern_matching_skillNtB6_20PatternMatchingSkillNtNtNtCs74ZtNTl7RRg_12pandora_core10interfaces6skills11SkillModule7execute0s2_0Ba_
FN:50,_RNCNCNvXNtNtCsghRy5fz0Jb0_13pandora_tools6skills22pattern_matching_skillNtB6_20PatternMatchingSkillNtNtNtCs74ZtNTl7RRg_12pandora_core10interfaces6skills11SkillModule7execute0s_0Ba_
FN:45,_RNCNCNvXNtNtCs1fVwMUHTztI_13pandora_tools6skills22pattern_matching_skillNtB6_20PatternMatchingSkillNtNtNtCs74ZtNTl7RRg_12pandora_core10interfaces6skills11SkillModule7execute00Ba_
FN:59,_RNCNCNvXNtNtCs1fVwMUHTztI_13pandora_tools6skills22pattern_matching_skillNtB6_20PatternMatchingSkillNtNtNtCs74ZtNTl7RRg_12pandora_core10interfaces6skills11SkillModule7execute0s0_0Ba_
FN:64,_RNCNCNvXNtNtCs1fVwMUHTztI_13pandora_tools6skills22pattern_matching_skillNtB6_20PatternMatchingSkillNtNtNtCs74ZtNTl7RRg_12pandora_core10interfaces6skills11SkillModule7execute0s1_0Ba_
FN:65,_RNCNCNvXNtNtCs1fVwMUHTztI_13pandora_tools6skills22pattern_matching_skillNtB6_20PatternMatchingSkillNtNtNtCs74ZtNTl7RRg_12pandora_core10interfaces6skills11SkillModule7execute0s2_0Ba_
FN:50,_RNCNCNvXNtNtCs1fVwMUHTztI_13pandora_tools6skills22pattern_matching_skillNtB6_20PatternMatchingSkillNtNtNtCs74ZtNTl7RRg_12pandora_core10interfaces6skills11SkillModule7execute0s_0Ba_
FN:32,_RNvXNtNtCs1fVwMUHTztI_13pandora_tools6skills22pattern_matching_skillNtB2_20PatternMatchingSkillNtNtNtCs74ZtNTl7RRg_12pandora_core10interfaces6skills11SkillModule10descriptor
FN:15,_RNCNvNtNtNtCs1fVwMUHTztI_13pandora_tools6skills22pattern_matching_skill5testss_13test_no_match0B9_
FN:7,_RNCNvNtNtNtCs1fVwMUHTztI_13pandora_tools6skills22pattern_matching_skill5testss_25test_simple_pattern_match0B9_
FN:15,_RNvNtNtNtCs1fVwMUHTztI_13pandora_tools6skills22pattern_matching_skill5testss_13test_no_match
FN:7,_RNvNtNtNtCs1fVwMUHTztI_13pandora_tools6skills22pattern_matching_skill5testss_25test_simple_pattern_match
FN:41,_RNvXNtNtCs1fVwMUHTztI_13pandora_tools6skills22pattern_matching_skillNtB2_20PatternMatchingSkillNtNtNtCs74ZtNTl7RRg_12pandora_core10interfaces6skills11SkillModule7execute
FNDA:0,_RNCNCNvXNtNtCsghRy5fz0Jb0_13pandora_tools6skills22pattern_matching_skillNtB6_20PatternMatchingSkillNtNtNtCs74ZtNTl7RRg_12pandora_core10interfaces6skills11SkillModule7execute00Ba_
FNDA:0,_RNCNCNvXNtNtCsghRy5fz0Jb0_13pandora_tools6skills22pattern_matching_skillNtB6_20PatternMatchingSkillNtNtNtCs74ZtNTl7RRg_12pandora_core10interfaces6skills11SkillModule7execute0s0_0Ba_
FNDA:0,_RNCNCNvXNtNtCsghRy5fz0Jb0_13pandora_tools6skills22pattern_matching_skillNtB6_20PatternMatchingSkillNtNtNtCs74ZtNTl7RRg_12pandora_core10interfaces6skills11SkillModule7execute0s1_0Ba_
FNDA:0,_RNCNCNvXNtNtCsghRy5fz0Jb0_13pandora_tools6skills22pattern_matching_skillNtB6_20PatternMatchingSkillNtNtNtCs74ZtNTl7RRg_12pandora_core10interfaces6skills11SkillModule7execute0s2_0Ba_
FNDA:0,_RNCNCNvXNtNtCsghRy5fz0Jb0_13pandora_tools6skills22pattern_matching_skillNtB6_20PatternMatchingSkillNtNtNtCs74ZtNTl7RRg_12pandora_core10interfaces6skills11SkillModule7execute0s_0Ba_
FNDA:2,_RNCNCNvXNtNtCs1fVwMUHTztI_13pandora_tools6skills22pattern_matching_skillNtB6_20PatternMatchingSkillNtNtNtCs74ZtNTl7RRg_12pandora_core10interfaces6skills11SkillModule7execute00Ba_
FNDA:0,_RNCNCNvXNtNtCs1fVwMUHTztI_13pandora_tools6skills22pattern_matching_skillNtB6_20PatternMatchingSkillNtNtNtCs74ZtNTl7RRg_12pandora_core10interfaces6skills11SkillModule7execute0s0_0Ba_
FNDA:7,_RNCNCNvXNtNtCs1fVwMUHTztI_13pandora_tools6skills22pattern_matching_skillNtB6_20PatternMatchingSkillNtNtNtCs74ZtNTl7RRg_12pandora_core10interfaces6skills11SkillModule7execute0s1_0Ba_
FNDA:7,_RNCNCNvXNtNtCs1fVwMUHTztI_13pandora_tools6skills22pattern_matching_skillNtB6_20PatternMatchingSkillNtNtNtCs74ZtNTl7RRg_12pandora_core10interfaces6skills11SkillModule7execute0s2_0Ba_
FNDA:2,_RNCNCNvXNtNtCs1fVwMUHTztI_13pandora_tools6skills22pattern_matching_skillNtB6_20PatternMatchingSkillNtNtNtCs74ZtNTl7RRg_12pandora_core10interfaces6skills11SkillModule7execute0s_0Ba_
FNDA:0,_RNvXNtNtCs1fVwMUHTztI_13pandora_tools6skills22pattern_matching_skillNtB2_20PatternMatchingSkillNtNtNtCs74ZtNTl7RRg_12pandora_core10interfaces6skills11SkillModule10descriptor
FNDA:1,_RNCNvNtNtNtCs1fVwMUHTztI_13pandora_tools6skills22pattern_matching_skill5testss_13test_no_match0B9_
FNDA:1,_RNCNvNtNtNtCs1fVwMUHTztI_13pandora_tools6skills22pattern_matching_skill5testss_25test_simple_pattern_match0B9_
FNDA:1,_RNvNtNtNtCs1fVwMUHTztI_13pandora_tools6skills22pattern_matching_skill5testss_13test_no_match
FNDA:1,_RNvNtNtNtCs1fVwMUHTztI_13pandora_tools6skills22pattern_matching_skill5testss_25test_simple_pattern_match
FNDA:2,_RNvXNtNtCs1fVwMUHTztI_13pandora_tools6skills22pattern_matching_skillNtB2_20PatternMatchingSkillNtNtNtCs74ZtNTl7RRg_12pandora_core10interfaces6skills11SkillModule7execute
FNF:11
FNH:9
DA:7,1
DA:8,1
DA:9,1
DA:10,1
DA:11,1
DA:12,1
DA:15,1
DA:16,1
DA:17,1
DA:18,1
DA:19,1
DA:20,1
DA:32,0
DA:33,0
DA:34,0
DA:35,0
DA:36,0
DA:37,0
DA:38,0
DA:39,0
DA:41,2
DA:45,2
DA:50,2
DA:59,0
DA:60,0
DA:61,0
DA:64,7
DA:65,7
DA:68,2
BRF:0
BRH:0
LF:33
LH:22
end_of_record
SF:/home/ybao/B.1/B.1_COS/sdk/pandora_uniffi/src/lib.rs
FN:4,_RNvCshNSyr0zfvsQ_14pandora_uniffi5hello
FNDA:0,_RNvCshNSyr0zfvsQ_14pandora_uniffi5hello
FNF:1
FNH:0
DA:4,0
DA:5,0
DA:6,0
BRF:0
BRH:0
LF:3
LH:0
end_of_record